; ModuleID = 'E:/Source/repos/k64f_coro/Shared/Sources/task_adc.cpp'
source_filename = "E:/Source/repos/k64f_coro/Shared/Sources/task_adc.cpp"
target datalayout = "e-m:e-p:32:32-i64:64-v128:64:128-a:0:32-n32-S64"
target triple = "thumbv7em-none-unknown-eabi"

%"class.scp::core::scheduler_t" = type { %"struct.std::array", i32, i32 }
%"struct.std::array" = type { [8 x %"class.scp::core::task_t"*] }
%"class.scp::core::task_t" = type { i8, i32, i8, %"struct.std::experimental::coroutines_v1::coroutine_handle.0", %"class.std::stack" }
%"struct.std::experimental::coroutines_v1::coroutine_handle.0" = type { i8* }
%"class.std::stack" = type { %"class.std::deque" }
%"class.std::deque" = type { %"class.std::_Deque_base" }
%"class.std::_Deque_base" = type { %"struct.std::_Deque_base<std::experimental::coroutines_v1::coroutine_handle<void>, std::allocator<std::experimental::coroutines_v1::coroutine_handle<void> > >::_Deque_impl" }
%"struct.std::_Deque_base<std::experimental::coroutines_v1::coroutine_handle<void>, std::allocator<std::experimental::coroutines_v1::coroutine_handle<void> > >::_Deque_impl" = type { %"struct.std::experimental::coroutines_v1::coroutine_handle.0"**, i32, %"struct.std::_Deque_iterator", %"struct.std::_Deque_iterator" }
%"struct.std::_Deque_iterator" = type { %"struct.std::experimental::coroutines_v1::coroutine_handle.0"*, %"struct.std::experimental::coroutines_v1::coroutine_handle.0"*, %"struct.std::experimental::coroutines_v1::coroutine_handle.0"*, %"struct.std::experimental::coroutines_v1::coroutine_handle.0"** }
%_Z9adcTaskFnh.Frame = type { void (%_Z9adcTaskFnh.Frame*)*, void (%_Z9adcTaskFnh.Frame*)*, %"struct.scp::core::resumable::promise_type", i3, i8*, i32, %"struct.std::experimental::coroutines_v1::suspend_never", %"struct.std::experimental::coroutines_v1::coroutine_handle.0", %"struct.std::experimental::coroutines_v1::coroutine_handle", i1, %"struct.std::experimental::coroutines_v1::suspend_always", %"struct.std::experimental::coroutines_v1::coroutine_handle.0", %"struct.std::experimental::coroutines_v1::coroutine_handle", i8, %"struct.scp::core::future_t", %"struct.std::experimental::coroutines_v1::coroutine_handle.0", %"struct.std::experimental::coroutines_v1::coroutine_handle", i8, i8, %"struct.scp::core::future_t", %"struct.std::experimental::coroutines_v1::coroutine_handle.0", %"struct.std::experimental::coroutines_v1::coroutine_handle", i8, i16, %"struct.scp::core::future_t.1", %"struct.std::experimental::coroutines_v1::coroutine_handle.0", %"struct.std::experimental::coroutines_v1::coroutine_handle", i16, i16, %"struct.scp::core::future_t.1", %"struct.std::experimental::coroutines_v1::coroutine_handle.0", %"struct.std::experimental::coroutines_v1::coroutine_handle", i16, %"struct.scp::core::future_t.5", %"struct.std::experimental::coroutines_v1::coroutine_handle.0", %"struct.std::experimental::coroutines_v1::coroutine_handle", %"struct.std::experimental::coroutines_v1::suspend_never", %"struct.std::experimental::coroutines_v1::coroutine_handle.0", %"struct.std::experimental::coroutines_v1::coroutine_handle" }
%"struct.scp::core::resumable::promise_type" = type { i8 }
%"struct.std::experimental::coroutines_v1::suspend_always" = type { i8 }
%"struct.scp::core::future_t" = type { %"struct.scp::core::counted_ptr" }
%"struct.scp::core::counted_ptr" = type { %"struct.scp::core::counted_awaitable_state"* }
%"struct.scp::core::counted_awaitable_state" = type { %"struct.scp::core::awaitable_state", i32 }
%"struct.scp::core::awaitable_state" = type { %"struct.scp::core::awaitable_state_base.base", i8 }
%"struct.scp::core::awaitable_state_base.base" = type <{ %"struct.std::experimental::coroutines_v1::coroutine_handle.0", i8, i8, i8 }>
%"struct.scp::core::future_t.1" = type { %"struct.scp::core::counted_ptr.2" }
%"struct.scp::core::counted_ptr.2" = type { %"struct.scp::core::counted_awaitable_state.3"* }
%"struct.scp::core::counted_awaitable_state.3" = type { %"struct.scp::core::awaitable_state.base", i32 }
%"struct.scp::core::awaitable_state.base" = type { %"struct.scp::core::awaitable_state_base.base", i16 }
%"struct.scp::core::future_t.5" = type { %"struct.scp::core::counted_ptr.6" }
%"struct.scp::core::counted_ptr.6" = type { %"struct.scp::core::counted_awaitable_state.7"* }
%"struct.scp::core::counted_awaitable_state.7" = type { %"struct.scp::core::awaitable_state.base.9", i32 }
%"struct.scp::core::awaitable_state.base.9" = type { %"struct.scp::core::awaitable_state_base.base" }
%"struct.std::experimental::coroutines_v1::suspend_never" = type { i8 }
%"struct.std::experimental::coroutines_v1::coroutine_handle" = type { %"struct.std::experimental::coroutines_v1::coroutine_handle.0" }
%"struct.scp::core::resumable" = type { %"struct.std::experimental::coroutines_v1::coroutine_handle" }
%"struct.scp::core::awaitable_state_base" = type <{ %"struct.std::experimental::coroutines_v1::coroutine_handle.0", i8, i8, i8, i8 }>
%"struct.scp::core::awaitable_state.4" = type { %"struct.scp::core::awaitable_state_base.base", i16, [2 x i8] }
%"struct.scp::core::awaitable_state.8" = type { %"struct.scp::core::awaitable_state_base.base", i8 }
%"struct.scp::core::future_exception" = type { %"class.std::exception", i32 }
%"class.std::exception" = type { i32 (...)** }

$_ZN3scp4core9resumable12promise_typenwEj = comdat any

$_ZN3scp4core9resumable12promise_type17get_return_objectEv = comdat any

$_ZN3scp4core9resumable12promise_type15initial_suspendEv = comdat any

$_ZNSt12experimental13coroutines_v113suspend_never11await_readyEv = comdat any

$_ZNSt12experimental13coroutines_v113suspend_never13await_suspendENS0_16coroutine_handleIvEE = comdat any

$_ZNSt12experimental13coroutines_v116coroutine_handleIN3scp4core9resumable12promise_typeEE12from_addressEPv = comdat any

$_ZNSt12experimental13coroutines_v113suspend_never12await_resumeEv = comdat any

$_ZN3scp4core9resumable12promise_type19unhandled_exceptionEv = comdat any

$__clang_call_terminate = comdat any

$_ZNSt12experimental13coroutines_v114suspend_always11await_readyEv = comdat any

$_ZNSt12experimental13coroutines_v114suspend_always13await_suspendENS0_16coroutine_handleIvEE = comdat any

$_ZNSt12experimental13coroutines_v114suspend_always12await_resumeEv = comdat any

$_ZNK3scp4core8future_tIhNS0_15awaitable_stateIhEEE11await_readyEv = comdat any

$_ZN3scp4core8future_tIhNS0_15awaitable_stateIhEEE13await_suspendENSt12experimental13coroutines_v116coroutine_handleIvEE = comdat any

$_ZNK3scp4core8future_tIhNS0_15awaitable_stateIhEEE12await_resumeEv = comdat any

$_ZN3scp4core8future_tIhNS0_15awaitable_stateIhEEED2Ev = comdat any

$_ZNK3scp4core8future_tItNS0_15awaitable_stateItEEE11await_readyEv = comdat any

$_ZN3scp4core8future_tItNS0_15awaitable_stateItEEE13await_suspendENSt12experimental13coroutines_v116coroutine_handleIvEE = comdat any

$_ZNK3scp4core8future_tItNS0_15awaitable_stateItEEE12await_resumeEv = comdat any

$_ZN3scp4core8future_tItNS0_15awaitable_stateItEEED2Ev = comdat any

$_ZNK3scp4core8future_tIvNS0_15awaitable_stateIvEEE11await_readyEv = comdat any

$_ZN3scp4core8future_tIvNS0_15awaitable_stateIvEEE13await_suspendENSt12experimental13coroutines_v116coroutine_handleIvEE = comdat any

$_ZNK3scp4core8future_tIvNS0_15awaitable_stateIvEEE12await_resumeEv = comdat any

$_ZN3scp4core8future_tIvNS0_15awaitable_stateIvEEED2Ev = comdat any

$_ZN3scp4core9resumable12promise_type13final_suspendEv = comdat any

$_ZN3scp4core9resumable12promise_typedlEPv = comdat any

$_ZN3scp4core9resumableD2Ev = comdat any

$_ZNSt12experimental13coroutines_v116coroutine_handleIN3scp4core9resumable12promise_typeEE12from_promiseERS5_ = comdat any

$_ZN3scp4core9resumableC2ENSt12experimental13coroutines_v116coroutine_handleINS1_12promise_typeEEE = comdat any

$_ZNSt12experimental13coroutines_v116coroutine_handleIN3scp4core9resumable12promise_typeEEC2Ev = comdat any

$_ZNSt12experimental13coroutines_v116coroutine_handleIvEC2Ev = comdat any

$_ZNK3scp4core11counted_ptrINS0_15awaitable_stateIhEEEptEv = comdat any

$_ZN3scp4core15awaitable_stateIhE9get_valueEv = comdat any

$_ZN3scp4core16future_exceptionC2ENS0_12future_errorE = comdat any

$_ZN3scp4core16future_exceptionD2Ev = comdat any

$_ZNSt9exceptionC2Ev = comdat any

$_ZN3scp4core16future_exceptionD0Ev = comdat any

$_ZN3scp4core11counted_ptrINS0_15awaitable_stateIhEEED2Ev = comdat any

$_ZN3scp4core11counted_ptrINS0_15awaitable_stateIhEEE7_unlockEv = comdat any

$_ZN3scp4core23counted_awaitable_stateINS0_15awaitable_stateIhEEE6unlockEv = comdat any

$_ZN3scp4core23counted_awaitable_stateINS0_15awaitable_stateIhEEED2Ev = comdat any

$_ZNK3scp4core11counted_ptrINS0_15awaitable_stateItEEEptEv = comdat any

$_ZN3scp4core15awaitable_stateItE9get_valueEv = comdat any

$_ZN3scp4core11counted_ptrINS0_15awaitable_stateItEEED2Ev = comdat any

$_ZN3scp4core11counted_ptrINS0_15awaitable_stateItEEE7_unlockEv = comdat any

$_ZN3scp4core23counted_awaitable_stateINS0_15awaitable_stateItEEE6unlockEv = comdat any

$_ZN3scp4core23counted_awaitable_stateINS0_15awaitable_stateItEEED2Ev = comdat any

$_ZNK3scp4core11counted_ptrINS0_15awaitable_stateIvEEEptEv = comdat any

$_ZNK3scp4core15awaitable_stateIvE9get_valueEv = comdat any

$_ZN3scp4core11counted_ptrINS0_15awaitable_stateIvEEED2Ev = comdat any

$_ZN3scp4core11counted_ptrINS0_15awaitable_stateIvEEE7_unlockEv = comdat any

$_ZN3scp4core23counted_awaitable_stateINS0_15awaitable_stateIvEEE6unlockEv = comdat any

$_ZN3scp4core23counted_awaitable_stateINS0_15awaitable_stateIvEEED2Ev = comdat any

$_ZNKSt12experimental13coroutines_v116coroutine_handleIvEcvbEv = comdat any

$_ZNKSt12experimental13coroutines_v116coroutine_handleIvE7destroyEv = comdat any

$_ZN3scp4core6task_t16blockRunningTaskEv = comdat any

$_ZN3scp4core20awaitable_state_base22set_coroutine_callbackENSt12experimental13coroutines_v116coroutine_handleIvEE = comdat any

$_ZN3scp4core6task_t14getRunningTaskEv = comdat any

$_ZN3scp4core6task_t5blockEv = comdat any

$_ZN3scp4core11scheduler_t11getInstanceEv = comdat any

$_ZN3scp4core11scheduler_t14getRunningTaskEv = comdat any

$_ZN3scp4core11scheduler_tC2Ev = comdat any

$_ZNSt5arrayIPN3scp4core6task_tELj8EEixEj = comdat any

$_ZNSt14__array_traitsIPN3scp4core6task_tELj8EE6_S_refERA8_KS3_j = comdat any

$_ZN3scp4core6task_t8setStateENS1_12task_state_tE = comdat any

$_ZTSN3scp4core16future_exceptionE = comdat any

$_ZTSSt9exception = comdat any

$_ZTISt9exception = comdat any

$_ZTIN3scp4core16future_exceptionE = comdat any

$_ZTVN3scp4core16future_exceptionE = comdat any

$_ZZN3scp4core11scheduler_t11getInstanceEvE11theInstance = comdat any

$_ZGVZN3scp4core11scheduler_t11getInstanceEvE11theInstance = comdat any

@.str = private unnamed_addr constant [55 x i8] c"x,y (accel) [t,i] : %d,%d (%d,%d,%d,%x,%d) [%lu,%lu]\0D\0A\00", align 1
@__accel_x = external dso_local global i16, align 2
@__accel_y = external dso_local global i16, align 2
@__accel_z = external dso_local global i16, align 2
@__accel_whoami = external dso_local global i8, align 1
@__accel_count = external dso_local global i16, align 2
@__timer_count = external dso_local global i32, align 4
@__idle_count = external dso_local global i32, align 4
@.str.1 = private unnamed_addr constant [21 x i8] c"resumable::new(%lu)\0A\00", align 1
@_ZTVN10__cxxabiv120__si_class_type_infoE = external dso_local global i8*
@_ZTSN3scp4core16future_exceptionE = linkonce_odr dso_local constant [30 x i8] c"N3scp4core16future_exceptionE\00", comdat, align 1
@_ZTVN10__cxxabiv117__class_type_infoE = external dso_local global i8*
@_ZTSSt9exception = linkonce_odr dso_local constant [13 x i8] c"St9exception\00", comdat, align 1
@_ZTISt9exception = linkonce_odr dso_local constant { i8*, i8* } { i8* bitcast (i8** getelementptr inbounds (i8*, i8** @_ZTVN10__cxxabiv117__class_type_infoE, i32 2) to i8*), i8* getelementptr inbounds ([13 x i8], [13 x i8]* @_ZTSSt9exception, i32 0, i32 0) }, comdat, align 4
@_ZTIN3scp4core16future_exceptionE = linkonce_odr dso_local constant { i8*, i8*, i8* } { i8* bitcast (i8** getelementptr inbounds (i8*, i8** @_ZTVN10__cxxabiv120__si_class_type_infoE, i32 2) to i8*), i8* getelementptr inbounds ([30 x i8], [30 x i8]* @_ZTSN3scp4core16future_exceptionE, i32 0, i32 0), i8* bitcast ({ i8*, i8* }* @_ZTISt9exception to i8*) }, comdat, align 4
@_ZTVN3scp4core16future_exceptionE = linkonce_odr dso_local unnamed_addr constant { [5 x i8*] } { [5 x i8*] [i8* null, i8* null, i8* bitcast (%"struct.scp::core::future_exception"* (%"struct.scp::core::future_exception"*)* @_ZN3scp4core16future_exceptionD2Ev to i8*), i8* bitcast (void (%"struct.scp::core::future_exception"*)* @_ZN3scp4core16future_exceptionD0Ev to i8*), i8* bitcast (i8* (%"class.std::exception"*)* @_ZNKSt9exception4whatEv to i8*)] }, comdat, align 4
@_ZTVSt9exception = external dso_local unnamed_addr constant { [5 x i8*] }, align 4
@.str.2 = private unnamed_addr constant [21 x i8] c"resumable::delete()\0A\00", align 1
@_ZZN3scp4core11scheduler_t11getInstanceEvE11theInstance = linkonce_odr dso_local global %"class.scp::core::scheduler_t" zeroinitializer, comdat, align 4, !dbg !0
@_ZGVZN3scp4core11scheduler_t11getInstanceEvE11theInstance = linkonce_odr dso_local global i32 0, comdat, align 4
@.str.3 = private unnamed_addr constant [69 x i8] c"E:/Source/repos/k64f_coro/k22fawait1/../Shared/Include/core_future.h\00", align 1
@__PRETTY_FUNCTION__._ZN3scp4core20awaitable_state_base22set_coroutine_callbackENSt12experimental13coroutines_v116coroutine_handleIvEE = private unnamed_addr constant [100 x i8] c"void scp::core::awaitable_state_base::set_coroutine_callback(std::experimental::coroutine_handle<>)\00", align 1
@.str.4 = private unnamed_addr constant [63 x i8] c"((!cb) || (!_coro)) && \22This future is already being awaited.\22\00", align 1
@_Z9adcTaskFnh.resumers = private constant [3 x void (%_Z9adcTaskFnh.Frame*)*] [void (%_Z9adcTaskFnh.Frame*)* @_Z9adcTaskFnh.resume, void (%_Z9adcTaskFnh.Frame*)* @_Z9adcTaskFnh.destroy, void (%_Z9adcTaskFnh.Frame*)* @_Z9adcTaskFnh.cleanup]

; Function Attrs: noinline optnone
define dso_local arm_aapcs_vfpcc void @_Z9adcTaskFnh(%"struct.scp::core::resumable"* noalias sret %agg.result, i8 zeroext %pin) #0 personality i8* bitcast (i32 (...)* @__gxx_personality_v0 to i8*) !dbg !1905 {
entry:
  %pin.addr = alloca i8, align 1
  %gro.active = alloca i1, align 1
  %nrvo = alloca i1, align 1
  %pin1 = alloca i8, align 1
  %undef.agg.tmp = alloca %"struct.std::experimental::coroutines_v1::suspend_never", align 1
  %undef.agg.tmp145 = alloca %"struct.std::experimental::coroutines_v1::suspend_never", align 1
  br i1 true, label %coro.alloc, label %coro.init.from.entry, !dbg !1908

coro.init.from.entry:                             ; preds = %entry
  %.coro.init = phi i8* [ null, %entry ]
  br label %coro.init, !dbg !1908

coro.alloc:                                       ; preds = %entry
  %call = call arm_aapcs_vfpcc i8* @_ZN3scp4core9resumable12promise_typenwEj(i32 136), !dbg !1909
  br label %coro.init.from.coro.alloc, !dbg !1908

coro.init.from.coro.alloc:                        ; preds = %coro.alloc
  %call.coro.init = phi i8* [ %call, %coro.alloc ]
  br label %coro.init, !dbg !1908

coro.init:                                        ; preds = %coro.init.from.entry, %coro.init.from.coro.alloc
  %0 = phi i8* [ %.coro.init, %coro.init.from.entry ], [ %call.coro.init, %coro.init.from.coro.alloc ], !dbg !1908
  %FramePtr = bitcast i8* %0 to %_Z9adcTaskFnh.Frame*, !dbg !1910
  %resume.addr = getelementptr inbounds %_Z9adcTaskFnh.Frame, %_Z9adcTaskFnh.Frame* %FramePtr, i32 0, i32 0, !dbg !1910
  store void (%_Z9adcTaskFnh.Frame*)* @_Z9adcTaskFnh.resume, void (%_Z9adcTaskFnh.Frame*)** %resume.addr, !dbg !1910
  %1 = select i1 true, void (%_Z9adcTaskFnh.Frame*)* @_Z9adcTaskFnh.destroy, void (%_Z9adcTaskFnh.Frame*)* @_Z9adcTaskFnh.cleanup, !dbg !1910
  %destroy.addr = getelementptr inbounds %_Z9adcTaskFnh.Frame, %_Z9adcTaskFnh.Frame* %FramePtr, i32 0, i32 1, !dbg !1910
  store void (%_Z9adcTaskFnh.Frame*)* %1, void (%_Z9adcTaskFnh.Frame*)** %destroy.addr, !dbg !1910
  br label %AllocaSpillBB, !dbg !1910

AllocaSpillBB:                                    ; preds = %coro.init
  %__promise = getelementptr inbounds %_Z9adcTaskFnh.Frame, %_Z9adcTaskFnh.Frame* %FramePtr, i32 0, i32 2, !dbg !1910
  %exn.slot = getelementptr inbounds %_Z9adcTaskFnh.Frame, %_Z9adcTaskFnh.Frame* %FramePtr, i32 0, i32 4, !dbg !1910
  %ehselector.slot = getelementptr inbounds %_Z9adcTaskFnh.Frame, %_Z9adcTaskFnh.Frame* %FramePtr, i32 0, i32 5, !dbg !1910
  %ref.tmp = getelementptr inbounds %_Z9adcTaskFnh.Frame, %_Z9adcTaskFnh.Frame* %FramePtr, i32 0, i32 6, !dbg !1910
  %agg.tmp = getelementptr inbounds %_Z9adcTaskFnh.Frame, %_Z9adcTaskFnh.Frame* %FramePtr, i32 0, i32 7, !dbg !1910
  %ref.tmp6 = getelementptr inbounds %_Z9adcTaskFnh.Frame, %_Z9adcTaskFnh.Frame* %FramePtr, i32 0, i32 8, !dbg !1910
  %initresume.eh = getelementptr inbounds %_Z9adcTaskFnh.Frame, %_Z9adcTaskFnh.Frame* %FramePtr, i32 0, i32 9, !dbg !1910
  %ref.tmp17 = getelementptr inbounds %_Z9adcTaskFnh.Frame, %_Z9adcTaskFnh.Frame* %FramePtr, i32 0, i32 10, !dbg !1910
  %agg.tmp21 = getelementptr inbounds %_Z9adcTaskFnh.Frame, %_Z9adcTaskFnh.Frame* %FramePtr, i32 0, i32 11, !dbg !1910
  %ref.tmp22 = getelementptr inbounds %_Z9adcTaskFnh.Frame, %_Z9adcTaskFnh.Frame* %FramePtr, i32 0, i32 12, !dbg !1910
  %okx = getelementptr inbounds %_Z9adcTaskFnh.Frame, %_Z9adcTaskFnh.Frame* %FramePtr, i32 0, i32 13, !dbg !1910
  %ref.tmp30 = getelementptr inbounds %_Z9adcTaskFnh.Frame, %_Z9adcTaskFnh.Frame* %FramePtr, i32 0, i32 14, !dbg !1910
  %agg.tmp35 = getelementptr inbounds %_Z9adcTaskFnh.Frame, %_Z9adcTaskFnh.Frame* %FramePtr, i32 0, i32 15, !dbg !1910
  %ref.tmp36 = getelementptr inbounds %_Z9adcTaskFnh.Frame, %_Z9adcTaskFnh.Frame* %FramePtr, i32 0, i32 16, !dbg !1910
  %tmp.exprcleanup = getelementptr inbounds %_Z9adcTaskFnh.Frame, %_Z9adcTaskFnh.Frame* %FramePtr, i32 0, i32 17, !dbg !1910
  %oky = getelementptr inbounds %_Z9adcTaskFnh.Frame, %_Z9adcTaskFnh.Frame* %FramePtr, i32 0, i32 18, !dbg !1910
  %ref.tmp47 = getelementptr inbounds %_Z9adcTaskFnh.Frame, %_Z9adcTaskFnh.Frame* %FramePtr, i32 0, i32 19, !dbg !1910
  %agg.tmp52 = getelementptr inbounds %_Z9adcTaskFnh.Frame, %_Z9adcTaskFnh.Frame* %FramePtr, i32 0, i32 20, !dbg !1910
  %ref.tmp53 = getelementptr inbounds %_Z9adcTaskFnh.Frame, %_Z9adcTaskFnh.Frame* %FramePtr, i32 0, i32 21, !dbg !1910
  %tmp.exprcleanup67 = getelementptr inbounds %_Z9adcTaskFnh.Frame, %_Z9adcTaskFnh.Frame* %FramePtr, i32 0, i32 22, !dbg !1910
  %x = getelementptr inbounds %_Z9adcTaskFnh.Frame, %_Z9adcTaskFnh.Frame* %FramePtr, i32 0, i32 23, !dbg !1910
  %ref.tmp68 = getelementptr inbounds %_Z9adcTaskFnh.Frame, %_Z9adcTaskFnh.Frame* %FramePtr, i32 0, i32 24, !dbg !1910
  %agg.tmp73 = getelementptr inbounds %_Z9adcTaskFnh.Frame, %_Z9adcTaskFnh.Frame* %FramePtr, i32 0, i32 25, !dbg !1910
  %ref.tmp74 = getelementptr inbounds %_Z9adcTaskFnh.Frame, %_Z9adcTaskFnh.Frame* %FramePtr, i32 0, i32 26, !dbg !1910
  %tmp.exprcleanup88 = getelementptr inbounds %_Z9adcTaskFnh.Frame, %_Z9adcTaskFnh.Frame* %FramePtr, i32 0, i32 27, !dbg !1910
  %y = getelementptr inbounds %_Z9adcTaskFnh.Frame, %_Z9adcTaskFnh.Frame* %FramePtr, i32 0, i32 28, !dbg !1910
  %ref.tmp89 = getelementptr inbounds %_Z9adcTaskFnh.Frame, %_Z9adcTaskFnh.Frame* %FramePtr, i32 0, i32 29, !dbg !1910
  %agg.tmp94 = getelementptr inbounds %_Z9adcTaskFnh.Frame, %_Z9adcTaskFnh.Frame* %FramePtr, i32 0, i32 30, !dbg !1910
  %ref.tmp95 = getelementptr inbounds %_Z9adcTaskFnh.Frame, %_Z9adcTaskFnh.Frame* %FramePtr, i32 0, i32 31, !dbg !1910
  %tmp.exprcleanup109 = getelementptr inbounds %_Z9adcTaskFnh.Frame, %_Z9adcTaskFnh.Frame* %FramePtr, i32 0, i32 32, !dbg !1910
  %ref.tmp117 = getelementptr inbounds %_Z9adcTaskFnh.Frame, %_Z9adcTaskFnh.Frame* %FramePtr, i32 0, i32 33, !dbg !1910
  %agg.tmp122 = getelementptr inbounds %_Z9adcTaskFnh.Frame, %_Z9adcTaskFnh.Frame* %FramePtr, i32 0, i32 34, !dbg !1910
  %ref.tmp123 = getelementptr inbounds %_Z9adcTaskFnh.Frame, %_Z9adcTaskFnh.Frame* %FramePtr, i32 0, i32 35, !dbg !1910
  %ref.tmp143 = getelementptr inbounds %_Z9adcTaskFnh.Frame, %_Z9adcTaskFnh.Frame* %FramePtr, i32 0, i32 36, !dbg !1910
  %agg.tmp148 = getelementptr inbounds %_Z9adcTaskFnh.Frame, %_Z9adcTaskFnh.Frame* %FramePtr, i32 0, i32 37, !dbg !1910
  %ref.tmp149 = getelementptr inbounds %_Z9adcTaskFnh.Frame, %_Z9adcTaskFnh.Frame* %FramePtr, i32 0, i32 38, !dbg !1910
  br label %PostSpill, !dbg !1910

PostSpill:                                        ; preds = %AllocaSpillBB
  call void @llvm.dbg.value(metadata i8 %pin, metadata !1911, metadata !DIExpression()), !dbg !1910
  store i8 %pin, i8* %pin.addr, align 1
  call void @coro.devirt.trigger(i8* null)
  store i1 false, i1* %gro.active, align 1, !dbg !1908
  store i1 false, i1* %nrvo, align 1, !dbg !1908
  call void @llvm.dbg.declare(metadata %"struct.scp::core::resumable"* %agg.result, metadata !1912, metadata !DIExpression()), !dbg !1909
  %2 = load i8, i8* %pin.addr, align 1, !dbg !1913
  call void @llvm.dbg.value(metadata i8 %2, metadata !1911, metadata !DIExpression()), !dbg !1910
  call void @llvm.dbg.value(metadata i8 %2, metadata !1914, metadata !DIExpression()), !dbg !1915
  store i8 %2, i8* %pin1, align 1, !dbg !1913
  invoke arm_aapcs_vfpcc void @_ZN3scp4core9resumable12promise_type17get_return_objectEv(%"struct.scp::core::resumable"* sret %agg.result, %"struct.scp::core::resumable::promise_type"* %__promise)
          to label %invoke.cont unwind label %lpad, !dbg !1909

invoke.cont:                                      ; preds = %PostSpill
  store i1 true, i1* %gro.active, align 1, !dbg !1909
  call arm_aapcs_vfpcc void @_ZN3scp4core9resumable12promise_type15initial_suspendEv(%"struct.scp::core::resumable::promise_type"* %__promise), !dbg !1909
  br label %invoke.cont3

invoke.cont3:                                     ; preds = %invoke.cont
  %call5 = call arm_aapcs_vfpcc zeroext i1 @_ZNSt12experimental13coroutines_v113suspend_never11await_readyEv(%"struct.std::experimental::coroutines_v1::suspend_never"* %ref.tmp), !dbg !1909
  br label %invoke.cont4

invoke.cont4:                                     ; preds = %invoke.cont3
  br i1 %call5, label %init.ready, label %CoroSave, !dbg !1909

CoroSave:                                         ; preds = %invoke.cont4
  %index.addr269 = getelementptr inbounds %_Z9adcTaskFnh.Frame, %_Z9adcTaskFnh.Frame* %FramePtr, i32 0, i32 3, !dbg !1909
  store i3 0, i3* %index.addr269, !dbg !1909
  br label %AfterCoroSave, !dbg !1909

AfterCoroSave:                                    ; preds = %CoroSave
  %ref.tmp6.reload.addr = getelementptr inbounds %_Z9adcTaskFnh.Frame, %_Z9adcTaskFnh.Frame* %FramePtr, i32 0, i32 8, !dbg !1909
  %agg.tmp.reload.addr = getelementptr inbounds %_Z9adcTaskFnh.Frame, %_Z9adcTaskFnh.Frame* %FramePtr, i32 0, i32 7, !dbg !1909
  %ref.tmp.reload.addr231 = getelementptr inbounds %_Z9adcTaskFnh.Frame, %_Z9adcTaskFnh.Frame* %FramePtr, i32 0, i32 6, !dbg !1909
  %call7 = call arm_aapcs_vfpcc i32 @_ZNSt12experimental13coroutines_v116coroutine_handleIN3scp4core9resumable12promise_typeEE12from_addressEPv(i8* %0) #3, !dbg !1909
  %coerce.dive = getelementptr inbounds %"struct.std::experimental::coroutines_v1::coroutine_handle", %"struct.std::experimental::coroutines_v1::coroutine_handle"* %ref.tmp6.reload.addr, i32 0, i32 0, !dbg !1909
  %coerce.dive8 = getelementptr inbounds %"struct.std::experimental::coroutines_v1::coroutine_handle.0", %"struct.std::experimental::coroutines_v1::coroutine_handle.0"* %coerce.dive, i32 0, i32 0, !dbg !1909
  %coerce.val.ip = inttoptr i32 %call7 to i8*, !dbg !1909
  store i8* %coerce.val.ip, i8** %coerce.dive8, align 4, !dbg !1909
  %3 = bitcast %"struct.std::experimental::coroutines_v1::coroutine_handle"* %ref.tmp6.reload.addr to %"struct.std::experimental::coroutines_v1::coroutine_handle.0"*, !dbg !1909
  %4 = bitcast %"struct.std::experimental::coroutines_v1::coroutine_handle.0"* %agg.tmp.reload.addr to i8*, !dbg !1909
  %5 = bitcast %"struct.std::experimental::coroutines_v1::coroutine_handle.0"* %3 to i8*, !dbg !1909
  call void @llvm.memcpy.p0i8.p0i8.i32(i8* align 4 %4, i8* align 4 %5, i32 4, i1 false), !dbg !1909
  %coerce.dive9 = getelementptr inbounds %"struct.std::experimental::coroutines_v1::coroutine_handle.0", %"struct.std::experimental::coroutines_v1::coroutine_handle.0"* %agg.tmp.reload.addr, i32 0, i32 0, !dbg !1909
  %6 = bitcast i8** %coerce.dive9 to [1 x i32]*, !dbg !1909
  %7 = load [1 x i32], [1 x i32]* %6, align 4, !dbg !1909
  call arm_aapcs_vfpcc void @_ZNSt12experimental13coroutines_v113suspend_never13await_suspendENS0_16coroutine_handleIvEE(%"struct.std::experimental::coroutines_v1::suspend_never"* %ref.tmp.reload.addr231, [1 x i32] %7), !dbg !1909
  br label %CoroSuspend

CoroSuspend:                                      ; preds = %AfterCoroSave
  br label %resume.0.landing, !dbg !1909

resume.0.landing:                                 ; preds = %CoroSuspend
  br label %AfterCoroSuspend, !dbg !1909

AfterCoroSuspend:                                 ; preds = %resume.0.landing
  switch i8 -1, label %coro.ret [
    i8 0, label %init.ready
    i8 1, label %init.cleanup
  ], !dbg !1909

init.cleanup:                                     ; preds = %AfterCoroSuspend
  br label %cleanup158.from.init.cleanup, !dbg !1909

cleanup158.from.init.cleanup:                     ; preds = %init.cleanup
  %.cleanup158210 = phi i32 [ 2, %init.cleanup ]
  br label %cleanup158, !dbg !1909

lpad:                                             ; preds = %PostSpill
  %8 = landingpad { i8*, i32 }
          cleanup, !dbg !1916
  %9 = extractvalue { i8*, i32 } %8, 0, !dbg !1916
  store i8* %9, i8** %exn.slot, align 4, !dbg !1916
  %10 = extractvalue { i8*, i32 } %8, 1, !dbg !1916
  store i32 %10, i32* %ehselector.slot, align 4, !dbg !1916
  br label %ehcleanup161, !dbg !1916

lpad2:                                            ; preds = %invoke.cont139
  %11 = landingpad { i8*, i32 }
          cleanup, !dbg !1916
  %ehselector.slot.reload.addr230 = getelementptr inbounds %_Z9adcTaskFnh.Frame, %_Z9adcTaskFnh.Frame* %FramePtr, i32 0, i32 5, !dbg !1916
  %exn.slot.reload.addr221 = getelementptr inbounds %_Z9adcTaskFnh.Frame, %_Z9adcTaskFnh.Frame* %FramePtr, i32 0, i32 4, !dbg !1916
  %12 = extractvalue { i8*, i32 } %11, 0, !dbg !1916
  store i8* %12, i8** %exn.slot.reload.addr221, align 4, !dbg !1916
  %13 = extractvalue { i8*, i32 } %11, 1, !dbg !1916
  store i32 %13, i32* %ehselector.slot.reload.addr230, align 4, !dbg !1916
  br label %ehcleanup, !dbg !1916

init.ready:                                       ; preds = %AfterCoroSuspend, %invoke.cont4
  %initresume.eh.reload.addr233 = getelementptr inbounds %_Z9adcTaskFnh.Frame, %_Z9adcTaskFnh.Frame* %FramePtr, i32 0, i32 9, !dbg !1909
  %ref.tmp.reload.addr = getelementptr inbounds %_Z9adcTaskFnh.Frame, %_Z9adcTaskFnh.Frame* %FramePtr, i32 0, i32 6, !dbg !1909
  store i1 true, i1* %initresume.eh.reload.addr233, align 1, !dbg !1909
  call arm_aapcs_vfpcc void @_ZNSt12experimental13coroutines_v113suspend_never12await_resumeEv(%"struct.std::experimental::coroutines_v1::suspend_never"* %ref.tmp.reload.addr), !dbg !1909
  br label %invoke.cont12

invoke.cont12:                                    ; preds = %init.ready
  %initresume.eh.reload.addr232 = getelementptr inbounds %_Z9adcTaskFnh.Frame, %_Z9adcTaskFnh.Frame* %FramePtr, i32 0, i32 9, !dbg !1909
  store i1 false, i1* %initresume.eh.reload.addr232, align 1, !dbg !1909
  br label %try.cont, !dbg !1909

try.cont:                                         ; preds = %invoke.cont12
  %initresume.eh.reload.addr = getelementptr inbounds %_Z9adcTaskFnh.Frame, %_Z9adcTaskFnh.Frame* %FramePtr, i32 0, i32 9, !dbg !1909
  %coro.resumed.eh = load i1, i1* %initresume.eh.reload.addr, align 1, !dbg !1909
  br i1 %coro.resumed.eh, label %coro.resumed.cont, label %coro.resumed.body, !dbg !1909

coro.resumed.body:                                ; preds = %try.cont
  %ref.tmp17.reload.addr235 = getelementptr inbounds %_Z9adcTaskFnh.Frame, %_Z9adcTaskFnh.Frame* %FramePtr, i32 0, i32 10, !dbg !1917
  %call20 = call arm_aapcs_vfpcc zeroext i1 @_ZNSt12experimental13coroutines_v114suspend_always11await_readyEv(%"struct.std::experimental::coroutines_v1::suspend_always"* %ref.tmp17.reload.addr235), !dbg !1917
  br label %invoke.cont19

invoke.cont19:                                    ; preds = %coro.resumed.body
  br i1 %call20, label %await.ready, label %CoroSave173, !dbg !1919

CoroSave173:                                      ; preds = %invoke.cont19
  %index.addr270 = getelementptr inbounds %_Z9adcTaskFnh.Frame, %_Z9adcTaskFnh.Frame* %FramePtr, i32 0, i32 3, !dbg !1919
  store i3 1, i3* %index.addr270, !dbg !1919
  br label %AfterCoroSave174, !dbg !1917

AfterCoroSave174:                                 ; preds = %CoroSave173
  %ref.tmp22.reload.addr = getelementptr inbounds %_Z9adcTaskFnh.Frame, %_Z9adcTaskFnh.Frame* %FramePtr, i32 0, i32 12, !dbg !1917
  %agg.tmp21.reload.addr = getelementptr inbounds %_Z9adcTaskFnh.Frame, %_Z9adcTaskFnh.Frame* %FramePtr, i32 0, i32 11, !dbg !1917
  %ref.tmp17.reload.addr234 = getelementptr inbounds %_Z9adcTaskFnh.Frame, %_Z9adcTaskFnh.Frame* %FramePtr, i32 0, i32 10, !dbg !1917
  %call23 = call arm_aapcs_vfpcc i32 @_ZNSt12experimental13coroutines_v116coroutine_handleIN3scp4core9resumable12promise_typeEE12from_addressEPv(i8* %0) #3, !dbg !1917
  %coerce.dive24 = getelementptr inbounds %"struct.std::experimental::coroutines_v1::coroutine_handle", %"struct.std::experimental::coroutines_v1::coroutine_handle"* %ref.tmp22.reload.addr, i32 0, i32 0, !dbg !1917
  %coerce.dive25 = getelementptr inbounds %"struct.std::experimental::coroutines_v1::coroutine_handle.0", %"struct.std::experimental::coroutines_v1::coroutine_handle.0"* %coerce.dive24, i32 0, i32 0, !dbg !1917
  %coerce.val.ip26 = inttoptr i32 %call23 to i8*, !dbg !1917
  store i8* %coerce.val.ip26, i8** %coerce.dive25, align 4, !dbg !1917
  %14 = bitcast %"struct.std::experimental::coroutines_v1::coroutine_handle"* %ref.tmp22.reload.addr to %"struct.std::experimental::coroutines_v1::coroutine_handle.0"*, !dbg !1917
  %15 = bitcast %"struct.std::experimental::coroutines_v1::coroutine_handle.0"* %agg.tmp21.reload.addr to i8*, !dbg !1917
  %16 = bitcast %"struct.std::experimental::coroutines_v1::coroutine_handle.0"* %14 to i8*, !dbg !1917
  call void @llvm.memcpy.p0i8.p0i8.i32(i8* align 4 %15, i8* align 4 %16, i32 4, i1 false), !dbg !1917
  %coerce.dive27 = getelementptr inbounds %"struct.std::experimental::coroutines_v1::coroutine_handle.0", %"struct.std::experimental::coroutines_v1::coroutine_handle.0"* %agg.tmp21.reload.addr, i32 0, i32 0, !dbg !1917
  %17 = bitcast i8** %coerce.dive27 to [1 x i32]*, !dbg !1917
  %18 = load [1 x i32], [1 x i32]* %17, align 4, !dbg !1917
  call arm_aapcs_vfpcc void @_ZNSt12experimental13coroutines_v114suspend_always13await_suspendENS0_16coroutine_handleIvEE(%"struct.std::experimental::coroutines_v1::suspend_always"* %ref.tmp17.reload.addr234, [1 x i32] %18), !dbg !1917
  br label %CoroSuspend175

CoroSuspend175:                                   ; preds = %AfterCoroSave174
  br label %resume.1.landing, !dbg !1919

resume.1.landing:                                 ; preds = %CoroSuspend175
  br label %AfterCoroSuspend176, !dbg !1919

AfterCoroSuspend176:                              ; preds = %resume.1.landing
  switch i8 -1, label %coro.ret [
    i8 0, label %await.ready
    i8 1, label %await.cleanup
  ], !dbg !1919

await.cleanup:                                    ; preds = %AfterCoroSuspend176
  br label %cleanup158.from.await.cleanup, !dbg !1919

cleanup158.from.await.cleanup:                    ; preds = %await.cleanup
  %.cleanup158209 = phi i32 [ 2, %await.cleanup ]
  br label %cleanup158, !dbg !1919

lpad18:                                           ; preds = %invoke.cont116, %cleanup.cont107, %cleanup.cont86, %for.cond, %cleanup.cont, %invoke.cont29
  %19 = landingpad { i8*, i32 }
          catch i8* null, !dbg !1920
  %ehselector.slot.reload.addr227 = getelementptr inbounds %_Z9adcTaskFnh.Frame, %_Z9adcTaskFnh.Frame* %FramePtr, i32 0, i32 5, !dbg !1920
  %exn.slot.reload.addr217 = getelementptr inbounds %_Z9adcTaskFnh.Frame, %_Z9adcTaskFnh.Frame* %FramePtr, i32 0, i32 4, !dbg !1920
  %20 = extractvalue { i8*, i32 } %19, 0, !dbg !1920
  store i8* %20, i8** %exn.slot.reload.addr217, align 4, !dbg !1920
  %21 = extractvalue { i8*, i32 } %19, 1, !dbg !1920
  store i32 %21, i32* %ehselector.slot.reload.addr227, align 4, !dbg !1920
  br label %catch136, !dbg !1920

await.ready:                                      ; preds = %AfterCoroSuspend176, %invoke.cont19
  %ref.tmp17.reload.addr = getelementptr inbounds %_Z9adcTaskFnh.Frame, %_Z9adcTaskFnh.Frame* %FramePtr, i32 0, i32 10, !dbg !1917
  call arm_aapcs_vfpcc void @_ZNSt12experimental13coroutines_v114suspend_always12await_resumeEv(%"struct.std::experimental::coroutines_v1::suspend_always"* %ref.tmp17.reload.addr), !dbg !1917
  br label %invoke.cont29

invoke.cont29:                                    ; preds = %await.ready
  %ref.tmp30.reload.addr240 = getelementptr inbounds %_Z9adcTaskFnh.Frame, %_Z9adcTaskFnh.Frame* %FramePtr, i32 0, i32 14, !dbg !1921
  invoke arm_aapcs_vfpcc void @_ZN3scp7drivers9start_adcEh(%"struct.scp::core::future_t"* sret %ref.tmp30.reload.addr240, i8 zeroext 1)
          to label %invoke.cont31 unwind label %lpad18, !dbg !1921

invoke.cont31:                                    ; preds = %invoke.cont29
  %ref.tmp30.reload.addr239 = getelementptr inbounds %_Z9adcTaskFnh.Frame, %_Z9adcTaskFnh.Frame* %FramePtr, i32 0, i32 14, !dbg !1921
  %call34 = call arm_aapcs_vfpcc zeroext i1 @_ZNK3scp4core8future_tIhNS0_15awaitable_stateIhEEE11await_readyEv(%"struct.scp::core::future_t"* %ref.tmp30.reload.addr239), !dbg !1921
  br label %invoke.cont33

invoke.cont33:                                    ; preds = %invoke.cont31
  br i1 %call34, label %await2.ready, label %CoroSave177, !dbg !1922

CoroSave177:                                      ; preds = %invoke.cont33
  %index.addr271 = getelementptr inbounds %_Z9adcTaskFnh.Frame, %_Z9adcTaskFnh.Frame* %FramePtr, i32 0, i32 3, !dbg !1922
  store i3 2, i3* %index.addr271, !dbg !1922
  br label %AfterCoroSave178, !dbg !1921

AfterCoroSave178:                                 ; preds = %CoroSave177
  %ref.tmp36.reload.addr = getelementptr inbounds %_Z9adcTaskFnh.Frame, %_Z9adcTaskFnh.Frame* %FramePtr, i32 0, i32 16, !dbg !1921
  %agg.tmp35.reload.addr = getelementptr inbounds %_Z9adcTaskFnh.Frame, %_Z9adcTaskFnh.Frame* %FramePtr, i32 0, i32 15, !dbg !1921
  %ref.tmp30.reload.addr238 = getelementptr inbounds %_Z9adcTaskFnh.Frame, %_Z9adcTaskFnh.Frame* %FramePtr, i32 0, i32 14, !dbg !1921
  %call37 = call arm_aapcs_vfpcc i32 @_ZNSt12experimental13coroutines_v116coroutine_handleIN3scp4core9resumable12promise_typeEE12from_addressEPv(i8* %0) #3, !dbg !1921
  %coerce.dive38 = getelementptr inbounds %"struct.std::experimental::coroutines_v1::coroutine_handle", %"struct.std::experimental::coroutines_v1::coroutine_handle"* %ref.tmp36.reload.addr, i32 0, i32 0, !dbg !1921
  %coerce.dive39 = getelementptr inbounds %"struct.std::experimental::coroutines_v1::coroutine_handle.0", %"struct.std::experimental::coroutines_v1::coroutine_handle.0"* %coerce.dive38, i32 0, i32 0, !dbg !1921
  %coerce.val.ip40 = inttoptr i32 %call37 to i8*, !dbg !1921
  store i8* %coerce.val.ip40, i8** %coerce.dive39, align 4, !dbg !1921
  %22 = bitcast %"struct.std::experimental::coroutines_v1::coroutine_handle"* %ref.tmp36.reload.addr to %"struct.std::experimental::coroutines_v1::coroutine_handle.0"*, !dbg !1921
  %23 = bitcast %"struct.std::experimental::coroutines_v1::coroutine_handle.0"* %agg.tmp35.reload.addr to i8*, !dbg !1921
  %24 = bitcast %"struct.std::experimental::coroutines_v1::coroutine_handle.0"* %22 to i8*, !dbg !1921
  call void @llvm.memcpy.p0i8.p0i8.i32(i8* align 4 %23, i8* align 4 %24, i32 4, i1 false), !dbg !1921
  %coerce.dive41 = getelementptr inbounds %"struct.std::experimental::coroutines_v1::coroutine_handle.0", %"struct.std::experimental::coroutines_v1::coroutine_handle.0"* %agg.tmp35.reload.addr, i32 0, i32 0, !dbg !1921
  %25 = bitcast i8** %coerce.dive41 to [1 x i32]*, !dbg !1921
  %26 = load [1 x i32], [1 x i32]* %25, align 4, !dbg !1921
  invoke arm_aapcs_vfpcc void @_ZN3scp4core8future_tIhNS0_15awaitable_stateIhEEE13await_suspendENSt12experimental13coroutines_v116coroutine_handleIvEE(%"struct.scp::core::future_t"* %ref.tmp30.reload.addr238, [1 x i32] %26)
          to label %CoroSuspend179 unwind label %lpad32, !dbg !1921

CoroSuspend179:                                   ; preds = %AfterCoroSave178
  br label %resume.2.landing, !dbg !1922

resume.2.landing:                                 ; preds = %CoroSuspend179
  br label %AfterCoroSuspend180, !dbg !1922

AfterCoroSuspend180:                              ; preds = %resume.2.landing
  switch i8 -1, label %coro.ret [
    i8 0, label %await2.ready
    i8 1, label %await2.cleanup
  ], !dbg !1922

await2.cleanup:                                   ; preds = %AfterCoroSuspend180
  br label %cleanup.from.await2.cleanup, !dbg !1922

cleanup.from.await2.cleanup:                      ; preds = %await2.cleanup
  %.cleanup203 = phi i32 [ 2, %await2.cleanup ]
  br label %cleanup, !dbg !1922

lpad32:                                           ; preds = %await2.ready, %AfterCoroSave178
  %27 = landingpad { i8*, i32 }
          catch i8* null, !dbg !1920
  %ref.tmp30.reload.addr = getelementptr inbounds %_Z9adcTaskFnh.Frame, %_Z9adcTaskFnh.Frame* %FramePtr, i32 0, i32 14, !dbg !1920
  %ehselector.slot.reload.addr226 = getelementptr inbounds %_Z9adcTaskFnh.Frame, %_Z9adcTaskFnh.Frame* %FramePtr, i32 0, i32 5, !dbg !1920
  %exn.slot.reload.addr216 = getelementptr inbounds %_Z9adcTaskFnh.Frame, %_Z9adcTaskFnh.Frame* %FramePtr, i32 0, i32 4, !dbg !1920
  %28 = extractvalue { i8*, i32 } %27, 0, !dbg !1920
  store i8* %28, i8** %exn.slot.reload.addr216, align 4, !dbg !1920
  %29 = extractvalue { i8*, i32 } %27, 1, !dbg !1920
  store i32 %29, i32* %ehselector.slot.reload.addr226, align 4, !dbg !1920
  %call46 = call arm_aapcs_vfpcc %"struct.scp::core::future_t"* @_ZN3scp4core8future_tIhNS0_15awaitable_stateIhEEED2Ev(%"struct.scp::core::future_t"* %ref.tmp30.reload.addr) #3, !dbg !1922
  br label %catch136, !dbg !1922

await2.ready:                                     ; preds = %AfterCoroSuspend180, %invoke.cont33
  %ref.tmp30.reload.addr237 = getelementptr inbounds %_Z9adcTaskFnh.Frame, %_Z9adcTaskFnh.Frame* %FramePtr, i32 0, i32 14, !dbg !1921
  %call44 = invoke arm_aapcs_vfpcc zeroext i8 @_ZNK3scp4core8future_tIhNS0_15awaitable_stateIhEEE12await_resumeEv(%"struct.scp::core::future_t"* %ref.tmp30.reload.addr237)
          to label %invoke.cont43 unwind label %lpad32, !dbg !1921

invoke.cont43:                                    ; preds = %await2.ready
  %tmp.exprcleanup.reload.addr241 = getelementptr inbounds %_Z9adcTaskFnh.Frame, %_Z9adcTaskFnh.Frame* %FramePtr, i32 0, i32 17, !dbg !1922
  store i8 %call44, i8* %tmp.exprcleanup.reload.addr241, align 1, !dbg !1922
  br label %cleanup.from.invoke.cont43, !dbg !1922

cleanup.from.invoke.cont43:                       ; preds = %invoke.cont43
  %.cleanup = phi i32 [ 0, %invoke.cont43 ]
  br label %cleanup, !dbg !1922

cleanup:                                          ; preds = %cleanup.from.invoke.cont43, %cleanup.from.await2.cleanup
  %cleanup.dest.slot.0 = phi i32 [ %.cleanup, %cleanup.from.invoke.cont43 ], [ %.cleanup203, %cleanup.from.await2.cleanup ]
  %ref.tmp30.reload.addr236 = getelementptr inbounds %_Z9adcTaskFnh.Frame, %_Z9adcTaskFnh.Frame* %FramePtr, i32 0, i32 14, !dbg !1922
  %call45 = call arm_aapcs_vfpcc %"struct.scp::core::future_t"* @_ZN3scp4core8future_tIhNS0_15awaitable_stateIhEEED2Ev(%"struct.scp::core::future_t"* %ref.tmp30.reload.addr236) #3, !dbg !1922
  %cond = icmp eq i32 %cleanup.dest.slot.0, 0
  br i1 %cond, label %cleanup.cont, label %cleanup158.from.cleanup

cleanup158.from.cleanup:                          ; preds = %cleanup
  %cleanup.dest.slot.0.cleanup158 = phi i32 [ %cleanup.dest.slot.0, %cleanup ]
  br label %cleanup158

cleanup.cont:                                     ; preds = %cleanup
  %ref.tmp47.reload.addr246 = getelementptr inbounds %_Z9adcTaskFnh.Frame, %_Z9adcTaskFnh.Frame* %FramePtr, i32 0, i32 19, !dbg !1922
  %tmp.exprcleanup.reload.addr = getelementptr inbounds %_Z9adcTaskFnh.Frame, %_Z9adcTaskFnh.Frame* %FramePtr, i32 0, i32 17, !dbg !1922
  %okx.reload.addr = getelementptr inbounds %_Z9adcTaskFnh.Frame, %_Z9adcTaskFnh.Frame* %FramePtr, i32 0, i32 13, !dbg !1922
  %30 = load i8, i8* %tmp.exprcleanup.reload.addr, align 1, !dbg !1922
  call void @llvm.dbg.value(metadata i8 %30, metadata !1923, metadata !DIExpression()), !dbg !1924
  store i8 %30, i8* %okx.reload.addr, align 1, !dbg !1924
  invoke arm_aapcs_vfpcc void @_ZN3scp7drivers9start_adcEh(%"struct.scp::core::future_t"* sret %ref.tmp47.reload.addr246, i8 zeroext 2)
          to label %invoke.cont48 unwind label %lpad18, !dbg !1925

invoke.cont48:                                    ; preds = %cleanup.cont
  %ref.tmp47.reload.addr245 = getelementptr inbounds %_Z9adcTaskFnh.Frame, %_Z9adcTaskFnh.Frame* %FramePtr, i32 0, i32 19, !dbg !1925
  %call51 = call arm_aapcs_vfpcc zeroext i1 @_ZNK3scp4core8future_tIhNS0_15awaitable_stateIhEEE11await_readyEv(%"struct.scp::core::future_t"* %ref.tmp47.reload.addr245), !dbg !1925
  br label %invoke.cont50

invoke.cont50:                                    ; preds = %invoke.cont48
  br i1 %call51, label %await3.ready, label %CoroSave181, !dbg !1926

CoroSave181:                                      ; preds = %invoke.cont50
  %index.addr272 = getelementptr inbounds %_Z9adcTaskFnh.Frame, %_Z9adcTaskFnh.Frame* %FramePtr, i32 0, i32 3, !dbg !1926
  store i3 3, i3* %index.addr272, !dbg !1926
  br label %AfterCoroSave182, !dbg !1925

AfterCoroSave182:                                 ; preds = %CoroSave181
  %ref.tmp53.reload.addr = getelementptr inbounds %_Z9adcTaskFnh.Frame, %_Z9adcTaskFnh.Frame* %FramePtr, i32 0, i32 21, !dbg !1925
  %agg.tmp52.reload.addr = getelementptr inbounds %_Z9adcTaskFnh.Frame, %_Z9adcTaskFnh.Frame* %FramePtr, i32 0, i32 20, !dbg !1925
  %ref.tmp47.reload.addr244 = getelementptr inbounds %_Z9adcTaskFnh.Frame, %_Z9adcTaskFnh.Frame* %FramePtr, i32 0, i32 19, !dbg !1925
  %call54 = call arm_aapcs_vfpcc i32 @_ZNSt12experimental13coroutines_v116coroutine_handleIN3scp4core9resumable12promise_typeEE12from_addressEPv(i8* %0) #3, !dbg !1925
  %coerce.dive55 = getelementptr inbounds %"struct.std::experimental::coroutines_v1::coroutine_handle", %"struct.std::experimental::coroutines_v1::coroutine_handle"* %ref.tmp53.reload.addr, i32 0, i32 0, !dbg !1925
  %coerce.dive56 = getelementptr inbounds %"struct.std::experimental::coroutines_v1::coroutine_handle.0", %"struct.std::experimental::coroutines_v1::coroutine_handle.0"* %coerce.dive55, i32 0, i32 0, !dbg !1925
  %coerce.val.ip57 = inttoptr i32 %call54 to i8*, !dbg !1925
  store i8* %coerce.val.ip57, i8** %coerce.dive56, align 4, !dbg !1925
  %31 = bitcast %"struct.std::experimental::coroutines_v1::coroutine_handle"* %ref.tmp53.reload.addr to %"struct.std::experimental::coroutines_v1::coroutine_handle.0"*, !dbg !1925
  %32 = bitcast %"struct.std::experimental::coroutines_v1::coroutine_handle.0"* %agg.tmp52.reload.addr to i8*, !dbg !1925
  %33 = bitcast %"struct.std::experimental::coroutines_v1::coroutine_handle.0"* %31 to i8*, !dbg !1925
  call void @llvm.memcpy.p0i8.p0i8.i32(i8* align 4 %32, i8* align 4 %33, i32 4, i1 false), !dbg !1925
  %coerce.dive58 = getelementptr inbounds %"struct.std::experimental::coroutines_v1::coroutine_handle.0", %"struct.std::experimental::coroutines_v1::coroutine_handle.0"* %agg.tmp52.reload.addr, i32 0, i32 0, !dbg !1925
  %34 = bitcast i8** %coerce.dive58 to [1 x i32]*, !dbg !1925
  %35 = load [1 x i32], [1 x i32]* %34, align 4, !dbg !1925
  invoke arm_aapcs_vfpcc void @_ZN3scp4core8future_tIhNS0_15awaitable_stateIhEEE13await_suspendENSt12experimental13coroutines_v116coroutine_handleIvEE(%"struct.scp::core::future_t"* %ref.tmp47.reload.addr244, [1 x i32] %35)
          to label %CoroSuspend183 unwind label %lpad49, !dbg !1925

CoroSuspend183:                                   ; preds = %AfterCoroSave182
  br label %resume.3.landing, !dbg !1926

resume.3.landing:                                 ; preds = %CoroSuspend183
  br label %AfterCoroSuspend184, !dbg !1926

AfterCoroSuspend184:                              ; preds = %resume.3.landing
  switch i8 -1, label %coro.ret [
    i8 0, label %await3.ready
    i8 1, label %await3.cleanup
  ], !dbg !1926

await3.cleanup:                                   ; preds = %AfterCoroSuspend184
  br label %cleanup62.from.await3.cleanup, !dbg !1926

cleanup62.from.await3.cleanup:                    ; preds = %await3.cleanup
  %.cleanup62204 = phi i32 [ 2, %await3.cleanup ]
  br label %cleanup62, !dbg !1926

lpad49:                                           ; preds = %await3.ready, %AfterCoroSave182
  %36 = landingpad { i8*, i32 }
          catch i8* null, !dbg !1920
  %ref.tmp47.reload.addr = getelementptr inbounds %_Z9adcTaskFnh.Frame, %_Z9adcTaskFnh.Frame* %FramePtr, i32 0, i32 19, !dbg !1920
  %ehselector.slot.reload.addr225 = getelementptr inbounds %_Z9adcTaskFnh.Frame, %_Z9adcTaskFnh.Frame* %FramePtr, i32 0, i32 5, !dbg !1920
  %exn.slot.reload.addr215 = getelementptr inbounds %_Z9adcTaskFnh.Frame, %_Z9adcTaskFnh.Frame* %FramePtr, i32 0, i32 4, !dbg !1920
  %37 = extractvalue { i8*, i32 } %36, 0, !dbg !1920
  store i8* %37, i8** %exn.slot.reload.addr215, align 4, !dbg !1920
  %38 = extractvalue { i8*, i32 } %36, 1, !dbg !1920
  store i32 %38, i32* %ehselector.slot.reload.addr225, align 4, !dbg !1920
  %call66 = call arm_aapcs_vfpcc %"struct.scp::core::future_t"* @_ZN3scp4core8future_tIhNS0_15awaitable_stateIhEEED2Ev(%"struct.scp::core::future_t"* %ref.tmp47.reload.addr) #3, !dbg !1926
  br label %catch136, !dbg !1926

await3.ready:                                     ; preds = %AfterCoroSuspend184, %invoke.cont50
  %ref.tmp47.reload.addr243 = getelementptr inbounds %_Z9adcTaskFnh.Frame, %_Z9adcTaskFnh.Frame* %FramePtr, i32 0, i32 19, !dbg !1925
  %call61 = invoke arm_aapcs_vfpcc zeroext i8 @_ZNK3scp4core8future_tIhNS0_15awaitable_stateIhEEE12await_resumeEv(%"struct.scp::core::future_t"* %ref.tmp47.reload.addr243)
          to label %invoke.cont60 unwind label %lpad49, !dbg !1925

invoke.cont60:                                    ; preds = %await3.ready
  %tmp.exprcleanup67.reload.addr247 = getelementptr inbounds %_Z9adcTaskFnh.Frame, %_Z9adcTaskFnh.Frame* %FramePtr, i32 0, i32 22, !dbg !1926
  store i8 %call61, i8* %tmp.exprcleanup67.reload.addr247, align 1, !dbg !1926
  br label %cleanup62.from.invoke.cont60, !dbg !1926

cleanup62.from.invoke.cont60:                     ; preds = %invoke.cont60
  %.cleanup62 = phi i32 [ 0, %invoke.cont60 ]
  br label %cleanup62, !dbg !1926

cleanup62:                                        ; preds = %cleanup62.from.invoke.cont60, %cleanup62.from.await3.cleanup
  %cleanup.dest.slot.1 = phi i32 [ %.cleanup62, %cleanup62.from.invoke.cont60 ], [ %.cleanup62204, %cleanup62.from.await3.cleanup ]
  %ref.tmp47.reload.addr242 = getelementptr inbounds %_Z9adcTaskFnh.Frame, %_Z9adcTaskFnh.Frame* %FramePtr, i32 0, i32 19, !dbg !1926
  %call63 = call arm_aapcs_vfpcc %"struct.scp::core::future_t"* @_ZN3scp4core8future_tIhNS0_15awaitable_stateIhEEED2Ev(%"struct.scp::core::future_t"* %ref.tmp47.reload.addr242) #3, !dbg !1926
  %cond276 = icmp eq i32 %cleanup.dest.slot.1, 0
  br i1 %cond276, label %cleanup.cont65, label %cleanup158.from.cleanup62

cleanup158.from.cleanup62:                        ; preds = %cleanup62
  %cleanup.dest.slot.1.cleanup158 = phi i32 [ %cleanup.dest.slot.1, %cleanup62 ]
  br label %cleanup158

cleanup.cont65:                                   ; preds = %cleanup62
  %tmp.exprcleanup67.reload.addr = getelementptr inbounds %_Z9adcTaskFnh.Frame, %_Z9adcTaskFnh.Frame* %FramePtr, i32 0, i32 22, !dbg !1926
  %oky.reload.addr = getelementptr inbounds %_Z9adcTaskFnh.Frame, %_Z9adcTaskFnh.Frame* %FramePtr, i32 0, i32 18, !dbg !1926
  %39 = load i8, i8* %tmp.exprcleanup67.reload.addr, align 1, !dbg !1926
  call void @llvm.dbg.value(metadata i8 %39, metadata !1927, metadata !DIExpression()), !dbg !1928
  store i8 %39, i8* %oky.reload.addr, align 1, !dbg !1928
  br label %for.cond, !dbg !1929

for.cond:                                         ; preds = %cleanup.cont134, %cleanup.cont65
  %ref.tmp68.reload.addr253 = getelementptr inbounds %_Z9adcTaskFnh.Frame, %_Z9adcTaskFnh.Frame* %FramePtr, i32 0, i32 24, !dbg !1930
  invoke arm_aapcs_vfpcc void @_ZN3scp7drivers9read_adc3Eh(%"struct.scp::core::future_t.1"* sret %ref.tmp68.reload.addr253, i8 zeroext 1)
          to label %invoke.cont69 unwind label %lpad18, !dbg !1930

invoke.cont69:                                    ; preds = %for.cond
  %ref.tmp68.reload.addr252 = getelementptr inbounds %_Z9adcTaskFnh.Frame, %_Z9adcTaskFnh.Frame* %FramePtr, i32 0, i32 24, !dbg !1930
  %call72 = call arm_aapcs_vfpcc zeroext i1 @_ZNK3scp4core8future_tItNS0_15awaitable_stateItEEE11await_readyEv(%"struct.scp::core::future_t.1"* %ref.tmp68.reload.addr252), !dbg !1930
  br label %invoke.cont71

invoke.cont71:                                    ; preds = %invoke.cont69
  br i1 %call72, label %await4.ready, label %CoroSave185, !dbg !1934

CoroSave185:                                      ; preds = %invoke.cont71
  %index.addr273 = getelementptr inbounds %_Z9adcTaskFnh.Frame, %_Z9adcTaskFnh.Frame* %FramePtr, i32 0, i32 3, !dbg !1934
  store i3 -4, i3* %index.addr273, !dbg !1934
  br label %AfterCoroSave186, !dbg !1930

AfterCoroSave186:                                 ; preds = %CoroSave185
  %ref.tmp74.reload.addr = getelementptr inbounds %_Z9adcTaskFnh.Frame, %_Z9adcTaskFnh.Frame* %FramePtr, i32 0, i32 26, !dbg !1930
  %agg.tmp73.reload.addr = getelementptr inbounds %_Z9adcTaskFnh.Frame, %_Z9adcTaskFnh.Frame* %FramePtr, i32 0, i32 25, !dbg !1930
  %ref.tmp68.reload.addr251 = getelementptr inbounds %_Z9adcTaskFnh.Frame, %_Z9adcTaskFnh.Frame* %FramePtr, i32 0, i32 24, !dbg !1930
  %call75 = call arm_aapcs_vfpcc i32 @_ZNSt12experimental13coroutines_v116coroutine_handleIN3scp4core9resumable12promise_typeEE12from_addressEPv(i8* %0) #3, !dbg !1930
  %coerce.dive76 = getelementptr inbounds %"struct.std::experimental::coroutines_v1::coroutine_handle", %"struct.std::experimental::coroutines_v1::coroutine_handle"* %ref.tmp74.reload.addr, i32 0, i32 0, !dbg !1930
  %coerce.dive77 = getelementptr inbounds %"struct.std::experimental::coroutines_v1::coroutine_handle.0", %"struct.std::experimental::coroutines_v1::coroutine_handle.0"* %coerce.dive76, i32 0, i32 0, !dbg !1930
  %coerce.val.ip78 = inttoptr i32 %call75 to i8*, !dbg !1930
  store i8* %coerce.val.ip78, i8** %coerce.dive77, align 4, !dbg !1930
  %40 = bitcast %"struct.std::experimental::coroutines_v1::coroutine_handle"* %ref.tmp74.reload.addr to %"struct.std::experimental::coroutines_v1::coroutine_handle.0"*, !dbg !1930
  %41 = bitcast %"struct.std::experimental::coroutines_v1::coroutine_handle.0"* %agg.tmp73.reload.addr to i8*, !dbg !1930
  %42 = bitcast %"struct.std::experimental::coroutines_v1::coroutine_handle.0"* %40 to i8*, !dbg !1930
  call void @llvm.memcpy.p0i8.p0i8.i32(i8* align 4 %41, i8* align 4 %42, i32 4, i1 false), !dbg !1930
  %coerce.dive79 = getelementptr inbounds %"struct.std::experimental::coroutines_v1::coroutine_handle.0", %"struct.std::experimental::coroutines_v1::coroutine_handle.0"* %agg.tmp73.reload.addr, i32 0, i32 0, !dbg !1930
  %43 = bitcast i8** %coerce.dive79 to [1 x i32]*, !dbg !1930
  %44 = load [1 x i32], [1 x i32]* %43, align 4, !dbg !1930
  invoke arm_aapcs_vfpcc void @_ZN3scp4core8future_tItNS0_15awaitable_stateItEEE13await_suspendENSt12experimental13coroutines_v116coroutine_handleIvEE(%"struct.scp::core::future_t.1"* %ref.tmp68.reload.addr251, [1 x i32] %44)
          to label %CoroSuspend187 unwind label %lpad70, !dbg !1930

CoroSuspend187:                                   ; preds = %AfterCoroSave186
  br label %resume.4.landing, !dbg !1934

resume.4.landing:                                 ; preds = %CoroSuspend187
  br label %AfterCoroSuspend188, !dbg !1934

AfterCoroSuspend188:                              ; preds = %resume.4.landing
  switch i8 -1, label %coro.ret [
    i8 0, label %await4.ready
    i8 1, label %await4.cleanup
  ], !dbg !1934

await4.cleanup:                                   ; preds = %AfterCoroSuspend188
  br label %cleanup83.from.await4.cleanup, !dbg !1934

cleanup83.from.await4.cleanup:                    ; preds = %await4.cleanup
  %.cleanup83205 = phi i32 [ 2, %await4.cleanup ]
  br label %cleanup83, !dbg !1934

lpad70:                                           ; preds = %await4.ready, %AfterCoroSave186
  %45 = landingpad { i8*, i32 }
          catch i8* null, !dbg !1935
  %ref.tmp68.reload.addr = getelementptr inbounds %_Z9adcTaskFnh.Frame, %_Z9adcTaskFnh.Frame* %FramePtr, i32 0, i32 24, !dbg !1935
  %ehselector.slot.reload.addr224 = getelementptr inbounds %_Z9adcTaskFnh.Frame, %_Z9adcTaskFnh.Frame* %FramePtr, i32 0, i32 5, !dbg !1935
  %exn.slot.reload.addr214 = getelementptr inbounds %_Z9adcTaskFnh.Frame, %_Z9adcTaskFnh.Frame* %FramePtr, i32 0, i32 4, !dbg !1935
  %46 = extractvalue { i8*, i32 } %45, 0, !dbg !1935
  store i8* %46, i8** %exn.slot.reload.addr214, align 4, !dbg !1935
  %47 = extractvalue { i8*, i32 } %45, 1, !dbg !1935
  store i32 %47, i32* %ehselector.slot.reload.addr224, align 4, !dbg !1935
  %call87 = call arm_aapcs_vfpcc %"struct.scp::core::future_t.1"* @_ZN3scp4core8future_tItNS0_15awaitable_stateItEEED2Ev(%"struct.scp::core::future_t.1"* %ref.tmp68.reload.addr) #3, !dbg !1934
  br label %catch136, !dbg !1934

await4.ready:                                     ; preds = %AfterCoroSuspend188, %invoke.cont71
  %ref.tmp68.reload.addr250 = getelementptr inbounds %_Z9adcTaskFnh.Frame, %_Z9adcTaskFnh.Frame* %FramePtr, i32 0, i32 24, !dbg !1930
  %call82 = invoke arm_aapcs_vfpcc zeroext i16 @_ZNK3scp4core8future_tItNS0_15awaitable_stateItEEE12await_resumeEv(%"struct.scp::core::future_t.1"* %ref.tmp68.reload.addr250)
          to label %invoke.cont81 unwind label %lpad70, !dbg !1930

invoke.cont81:                                    ; preds = %await4.ready
  %tmp.exprcleanup88.reload.addr254 = getelementptr inbounds %_Z9adcTaskFnh.Frame, %_Z9adcTaskFnh.Frame* %FramePtr, i32 0, i32 27, !dbg !1934
  store i16 %call82, i16* %tmp.exprcleanup88.reload.addr254, align 2, !dbg !1934
  br label %cleanup83.from.invoke.cont81, !dbg !1934

cleanup83.from.invoke.cont81:                     ; preds = %invoke.cont81
  %.cleanup83 = phi i32 [ 0, %invoke.cont81 ]
  br label %cleanup83, !dbg !1934

cleanup83:                                        ; preds = %cleanup83.from.invoke.cont81, %cleanup83.from.await4.cleanup
  %cleanup.dest.slot.2 = phi i32 [ %.cleanup83, %cleanup83.from.invoke.cont81 ], [ %.cleanup83205, %cleanup83.from.await4.cleanup ]
  %ref.tmp68.reload.addr249 = getelementptr inbounds %_Z9adcTaskFnh.Frame, %_Z9adcTaskFnh.Frame* %FramePtr, i32 0, i32 24, !dbg !1934
  %call84 = call arm_aapcs_vfpcc %"struct.scp::core::future_t.1"* @_ZN3scp4core8future_tItNS0_15awaitable_stateItEEED2Ev(%"struct.scp::core::future_t.1"* %ref.tmp68.reload.addr249) #3, !dbg !1934
  %cond277 = icmp eq i32 %cleanup.dest.slot.2, 0
  br i1 %cond277, label %cleanup.cont86, label %cleanup158.from.cleanup83

cleanup158.from.cleanup83:                        ; preds = %cleanup83
  %cleanup.dest.slot.2.cleanup158 = phi i32 [ %cleanup.dest.slot.2, %cleanup83 ]
  br label %cleanup158

cleanup.cont86:                                   ; preds = %cleanup83
  %ref.tmp89.reload.addr259 = getelementptr inbounds %_Z9adcTaskFnh.Frame, %_Z9adcTaskFnh.Frame* %FramePtr, i32 0, i32 29, !dbg !1934
  %tmp.exprcleanup88.reload.addr = getelementptr inbounds %_Z9adcTaskFnh.Frame, %_Z9adcTaskFnh.Frame* %FramePtr, i32 0, i32 27, !dbg !1934
  %x.reload.addr248 = getelementptr inbounds %_Z9adcTaskFnh.Frame, %_Z9adcTaskFnh.Frame* %FramePtr, i32 0, i32 23, !dbg !1934
  %48 = load i16, i16* %tmp.exprcleanup88.reload.addr, align 2, !dbg !1934
  call void @llvm.dbg.value(metadata i16 %48, metadata !1936, metadata !DIExpression()), !dbg !1937
  store i16 %48, i16* %x.reload.addr248, align 2, !dbg !1937
  invoke arm_aapcs_vfpcc void @_ZN3scp7drivers9read_adc3Eh(%"struct.scp::core::future_t.1"* sret %ref.tmp89.reload.addr259, i8 zeroext 2)
          to label %invoke.cont90 unwind label %lpad18, !dbg !1938

invoke.cont90:                                    ; preds = %cleanup.cont86
  %ref.tmp89.reload.addr258 = getelementptr inbounds %_Z9adcTaskFnh.Frame, %_Z9adcTaskFnh.Frame* %FramePtr, i32 0, i32 29, !dbg !1938
  %call93 = call arm_aapcs_vfpcc zeroext i1 @_ZNK3scp4core8future_tItNS0_15awaitable_stateItEEE11await_readyEv(%"struct.scp::core::future_t.1"* %ref.tmp89.reload.addr258), !dbg !1938
  br label %invoke.cont92

invoke.cont92:                                    ; preds = %invoke.cont90
  br i1 %call93, label %await5.ready, label %CoroSave189, !dbg !1939

CoroSave189:                                      ; preds = %invoke.cont92
  %index.addr274 = getelementptr inbounds %_Z9adcTaskFnh.Frame, %_Z9adcTaskFnh.Frame* %FramePtr, i32 0, i32 3, !dbg !1939
  store i3 -3, i3* %index.addr274, !dbg !1939
  br label %AfterCoroSave190, !dbg !1938

AfterCoroSave190:                                 ; preds = %CoroSave189
  %ref.tmp95.reload.addr = getelementptr inbounds %_Z9adcTaskFnh.Frame, %_Z9adcTaskFnh.Frame* %FramePtr, i32 0, i32 31, !dbg !1938
  %agg.tmp94.reload.addr = getelementptr inbounds %_Z9adcTaskFnh.Frame, %_Z9adcTaskFnh.Frame* %FramePtr, i32 0, i32 30, !dbg !1938
  %ref.tmp89.reload.addr257 = getelementptr inbounds %_Z9adcTaskFnh.Frame, %_Z9adcTaskFnh.Frame* %FramePtr, i32 0, i32 29, !dbg !1938
  %call96 = call arm_aapcs_vfpcc i32 @_ZNSt12experimental13coroutines_v116coroutine_handleIN3scp4core9resumable12promise_typeEE12from_addressEPv(i8* %0) #3, !dbg !1938
  %coerce.dive97 = getelementptr inbounds %"struct.std::experimental::coroutines_v1::coroutine_handle", %"struct.std::experimental::coroutines_v1::coroutine_handle"* %ref.tmp95.reload.addr, i32 0, i32 0, !dbg !1938
  %coerce.dive98 = getelementptr inbounds %"struct.std::experimental::coroutines_v1::coroutine_handle.0", %"struct.std::experimental::coroutines_v1::coroutine_handle.0"* %coerce.dive97, i32 0, i32 0, !dbg !1938
  %coerce.val.ip99 = inttoptr i32 %call96 to i8*, !dbg !1938
  store i8* %coerce.val.ip99, i8** %coerce.dive98, align 4, !dbg !1938
  %49 = bitcast %"struct.std::experimental::coroutines_v1::coroutine_handle"* %ref.tmp95.reload.addr to %"struct.std::experimental::coroutines_v1::coroutine_handle.0"*, !dbg !1938
  %50 = bitcast %"struct.std::experimental::coroutines_v1::coroutine_handle.0"* %agg.tmp94.reload.addr to i8*, !dbg !1938
  %51 = bitcast %"struct.std::experimental::coroutines_v1::coroutine_handle.0"* %49 to i8*, !dbg !1938
  call void @llvm.memcpy.p0i8.p0i8.i32(i8* align 4 %50, i8* align 4 %51, i32 4, i1 false), !dbg !1938
  %coerce.dive100 = getelementptr inbounds %"struct.std::experimental::coroutines_v1::coroutine_handle.0", %"struct.std::experimental::coroutines_v1::coroutine_handle.0"* %agg.tmp94.reload.addr, i32 0, i32 0, !dbg !1938
  %52 = bitcast i8** %coerce.dive100 to [1 x i32]*, !dbg !1938
  %53 = load [1 x i32], [1 x i32]* %52, align 4, !dbg !1938
  invoke arm_aapcs_vfpcc void @_ZN3scp4core8future_tItNS0_15awaitable_stateItEEE13await_suspendENSt12experimental13coroutines_v116coroutine_handleIvEE(%"struct.scp::core::future_t.1"* %ref.tmp89.reload.addr257, [1 x i32] %53)
          to label %CoroSuspend191 unwind label %lpad91, !dbg !1938

CoroSuspend191:                                   ; preds = %AfterCoroSave190
  br label %resume.5.landing, !dbg !1939

resume.5.landing:                                 ; preds = %CoroSuspend191
  br label %AfterCoroSuspend192, !dbg !1939

AfterCoroSuspend192:                              ; preds = %resume.5.landing
  switch i8 -1, label %coro.ret [
    i8 0, label %await5.ready
    i8 1, label %await5.cleanup
  ], !dbg !1939

await5.cleanup:                                   ; preds = %AfterCoroSuspend192
  br label %cleanup104.from.await5.cleanup, !dbg !1939

cleanup104.from.await5.cleanup:                   ; preds = %await5.cleanup
  %.cleanup104206 = phi i32 [ 2, %await5.cleanup ]
  br label %cleanup104, !dbg !1939

lpad91:                                           ; preds = %await5.ready, %AfterCoroSave190
  %54 = landingpad { i8*, i32 }
          catch i8* null, !dbg !1935
  %ref.tmp89.reload.addr = getelementptr inbounds %_Z9adcTaskFnh.Frame, %_Z9adcTaskFnh.Frame* %FramePtr, i32 0, i32 29, !dbg !1935
  %ehselector.slot.reload.addr223 = getelementptr inbounds %_Z9adcTaskFnh.Frame, %_Z9adcTaskFnh.Frame* %FramePtr, i32 0, i32 5, !dbg !1935
  %exn.slot.reload.addr213 = getelementptr inbounds %_Z9adcTaskFnh.Frame, %_Z9adcTaskFnh.Frame* %FramePtr, i32 0, i32 4, !dbg !1935
  %55 = extractvalue { i8*, i32 } %54, 0, !dbg !1935
  store i8* %55, i8** %exn.slot.reload.addr213, align 4, !dbg !1935
  %56 = extractvalue { i8*, i32 } %54, 1, !dbg !1935
  store i32 %56, i32* %ehselector.slot.reload.addr223, align 4, !dbg !1935
  %call108 = call arm_aapcs_vfpcc %"struct.scp::core::future_t.1"* @_ZN3scp4core8future_tItNS0_15awaitable_stateItEEED2Ev(%"struct.scp::core::future_t.1"* %ref.tmp89.reload.addr) #3, !dbg !1939
  br label %catch136, !dbg !1939

await5.ready:                                     ; preds = %AfterCoroSuspend192, %invoke.cont92
  %ref.tmp89.reload.addr256 = getelementptr inbounds %_Z9adcTaskFnh.Frame, %_Z9adcTaskFnh.Frame* %FramePtr, i32 0, i32 29, !dbg !1938
  %call103 = invoke arm_aapcs_vfpcc zeroext i16 @_ZNK3scp4core8future_tItNS0_15awaitable_stateItEEE12await_resumeEv(%"struct.scp::core::future_t.1"* %ref.tmp89.reload.addr256)
          to label %invoke.cont102 unwind label %lpad91, !dbg !1938

invoke.cont102:                                   ; preds = %await5.ready
  %tmp.exprcleanup109.reload.addr260 = getelementptr inbounds %_Z9adcTaskFnh.Frame, %_Z9adcTaskFnh.Frame* %FramePtr, i32 0, i32 32, !dbg !1939
  store i16 %call103, i16* %tmp.exprcleanup109.reload.addr260, align 2, !dbg !1939
  br label %cleanup104.from.invoke.cont102, !dbg !1939

cleanup104.from.invoke.cont102:                   ; preds = %invoke.cont102
  %.cleanup104 = phi i32 [ 0, %invoke.cont102 ]
  br label %cleanup104, !dbg !1939

cleanup104:                                       ; preds = %cleanup104.from.invoke.cont102, %cleanup104.from.await5.cleanup
  %cleanup.dest.slot.3 = phi i32 [ %.cleanup104, %cleanup104.from.invoke.cont102 ], [ %.cleanup104206, %cleanup104.from.await5.cleanup ]
  %ref.tmp89.reload.addr255 = getelementptr inbounds %_Z9adcTaskFnh.Frame, %_Z9adcTaskFnh.Frame* %FramePtr, i32 0, i32 29, !dbg !1939
  %call105 = call arm_aapcs_vfpcc %"struct.scp::core::future_t.1"* @_ZN3scp4core8future_tItNS0_15awaitable_stateItEEED2Ev(%"struct.scp::core::future_t.1"* %ref.tmp89.reload.addr255) #3, !dbg !1939
  %cond278 = icmp eq i32 %cleanup.dest.slot.3, 0
  br i1 %cond278, label %cleanup.cont107, label %cleanup158.from.cleanup104

cleanup158.from.cleanup104:                       ; preds = %cleanup104
  %cleanup.dest.slot.3.cleanup158 = phi i32 [ %cleanup.dest.slot.3, %cleanup104 ]
  br label %cleanup158

cleanup.cont107:                                  ; preds = %cleanup104
  %tmp.exprcleanup109.reload.addr = getelementptr inbounds %_Z9adcTaskFnh.Frame, %_Z9adcTaskFnh.Frame* %FramePtr, i32 0, i32 32, !dbg !1939
  %y.reload.addr = getelementptr inbounds %_Z9adcTaskFnh.Frame, %_Z9adcTaskFnh.Frame* %FramePtr, i32 0, i32 28, !dbg !1939
  %x.reload.addr = getelementptr inbounds %_Z9adcTaskFnh.Frame, %_Z9adcTaskFnh.Frame* %FramePtr, i32 0, i32 23, !dbg !1939
  %57 = load i16, i16* %tmp.exprcleanup109.reload.addr, align 2, !dbg !1939
  call void @llvm.dbg.value(metadata i16 %57, metadata !1940, metadata !DIExpression()), !dbg !1941
  store i16 %57, i16* %y.reload.addr, align 2, !dbg !1941
  %58 = load i16, i16* %x.reload.addr, align 2, !dbg !1942
  call void @llvm.dbg.value(metadata i16 %58, metadata !1936, metadata !DIExpression()), !dbg !1937
  %conv = zext i16 %58 to i32, !dbg !1942
  %59 = load i16, i16* %y.reload.addr, align 2, !dbg !1943
  call void @llvm.dbg.value(metadata i16 %59, metadata !1940, metadata !DIExpression()), !dbg !1941
  %conv110 = zext i16 %59 to i32, !dbg !1943
  %60 = load volatile i16, i16* @__accel_x, align 2, !dbg !1944
  %conv111 = sext i16 %60 to i32, !dbg !1944
  %61 = load volatile i16, i16* @__accel_y, align 2, !dbg !1945
  %conv112 = sext i16 %61 to i32, !dbg !1945
  %62 = load volatile i16, i16* @__accel_z, align 2, !dbg !1946
  %conv113 = sext i16 %62 to i32, !dbg !1946
  %63 = load volatile i8, i8* @__accel_whoami, align 1, !dbg !1947
  %conv114 = zext i8 %63 to i32, !dbg !1947
  %64 = load volatile i16, i16* @__accel_count, align 2, !dbg !1948
  %conv115 = sext i16 %64 to i32, !dbg !1948
  %65 = load volatile i32, i32* @__timer_count, align 4, !dbg !1949
  %66 = load volatile i32, i32* @__idle_count, align 4, !dbg !1950
  invoke arm_aapcs_vfpcc void (i8*, ...) @trace(i8* getelementptr inbounds ([55 x i8], [55 x i8]* @.str, i32 0, i32 0), i32 %conv, i32 %conv110, i32 %conv111, i32 %conv112, i32 %conv113, i32 %conv114, i32 %conv115, i32 %65, i32 %66)
          to label %invoke.cont116 unwind label %lpad18, !dbg !1951

invoke.cont116:                                   ; preds = %cleanup.cont107
  %ref.tmp117.reload.addr265 = getelementptr inbounds %_Z9adcTaskFnh.Frame, %_Z9adcTaskFnh.Frame* %FramePtr, i32 0, i32 33, !dbg !1952
  invoke arm_aapcs_vfpcc void @_ZN3scp7drivers13wait_on_ticksEm(%"struct.scp::core::future_t.5"* sret %ref.tmp117.reload.addr265, i32 10)
          to label %invoke.cont118 unwind label %lpad18, !dbg !1952

invoke.cont118:                                   ; preds = %invoke.cont116
  %ref.tmp117.reload.addr264 = getelementptr inbounds %_Z9adcTaskFnh.Frame, %_Z9adcTaskFnh.Frame* %FramePtr, i32 0, i32 33, !dbg !1952
  %call121 = call arm_aapcs_vfpcc zeroext i1 @_ZNK3scp4core8future_tIvNS0_15awaitable_stateIvEEE11await_readyEv(%"struct.scp::core::future_t.5"* %ref.tmp117.reload.addr264), !dbg !1952
  br label %invoke.cont120

invoke.cont120:                                   ; preds = %invoke.cont118
  br i1 %call121, label %await6.ready, label %CoroSave193, !dbg !1953

CoroSave193:                                      ; preds = %invoke.cont120
  %index.addr275 = getelementptr inbounds %_Z9adcTaskFnh.Frame, %_Z9adcTaskFnh.Frame* %FramePtr, i32 0, i32 3, !dbg !1953
  store i3 -2, i3* %index.addr275, !dbg !1953
  br label %AfterCoroSave194, !dbg !1952

AfterCoroSave194:                                 ; preds = %CoroSave193
  %ref.tmp123.reload.addr = getelementptr inbounds %_Z9adcTaskFnh.Frame, %_Z9adcTaskFnh.Frame* %FramePtr, i32 0, i32 35, !dbg !1952
  %agg.tmp122.reload.addr = getelementptr inbounds %_Z9adcTaskFnh.Frame, %_Z9adcTaskFnh.Frame* %FramePtr, i32 0, i32 34, !dbg !1952
  %ref.tmp117.reload.addr263 = getelementptr inbounds %_Z9adcTaskFnh.Frame, %_Z9adcTaskFnh.Frame* %FramePtr, i32 0, i32 33, !dbg !1952
  %call124 = call arm_aapcs_vfpcc i32 @_ZNSt12experimental13coroutines_v116coroutine_handleIN3scp4core9resumable12promise_typeEE12from_addressEPv(i8* %0) #3, !dbg !1952
  %coerce.dive125 = getelementptr inbounds %"struct.std::experimental::coroutines_v1::coroutine_handle", %"struct.std::experimental::coroutines_v1::coroutine_handle"* %ref.tmp123.reload.addr, i32 0, i32 0, !dbg !1952
  %coerce.dive126 = getelementptr inbounds %"struct.std::experimental::coroutines_v1::coroutine_handle.0", %"struct.std::experimental::coroutines_v1::coroutine_handle.0"* %coerce.dive125, i32 0, i32 0, !dbg !1952
  %coerce.val.ip127 = inttoptr i32 %call124 to i8*, !dbg !1952
  store i8* %coerce.val.ip127, i8** %coerce.dive126, align 4, !dbg !1952
  %67 = bitcast %"struct.std::experimental::coroutines_v1::coroutine_handle"* %ref.tmp123.reload.addr to %"struct.std::experimental::coroutines_v1::coroutine_handle.0"*, !dbg !1952
  %68 = bitcast %"struct.std::experimental::coroutines_v1::coroutine_handle.0"* %agg.tmp122.reload.addr to i8*, !dbg !1952
  %69 = bitcast %"struct.std::experimental::coroutines_v1::coroutine_handle.0"* %67 to i8*, !dbg !1952
  call void @llvm.memcpy.p0i8.p0i8.i32(i8* align 4 %68, i8* align 4 %69, i32 4, i1 false), !dbg !1952
  %coerce.dive128 = getelementptr inbounds %"struct.std::experimental::coroutines_v1::coroutine_handle.0", %"struct.std::experimental::coroutines_v1::coroutine_handle.0"* %agg.tmp122.reload.addr, i32 0, i32 0, !dbg !1952
  %70 = bitcast i8** %coerce.dive128 to [1 x i32]*, !dbg !1952
  %71 = load [1 x i32], [1 x i32]* %70, align 4, !dbg !1952
  invoke arm_aapcs_vfpcc void @_ZN3scp4core8future_tIvNS0_15awaitable_stateIvEEE13await_suspendENSt12experimental13coroutines_v116coroutine_handleIvEE(%"struct.scp::core::future_t.5"* %ref.tmp117.reload.addr263, [1 x i32] %71)
          to label %CoroSuspend195 unwind label %lpad119, !dbg !1952

CoroSuspend195:                                   ; preds = %AfterCoroSave194
  br label %resume.6.landing, !dbg !1953

resume.6.landing:                                 ; preds = %CoroSuspend195
  br label %AfterCoroSuspend196, !dbg !1953

AfterCoroSuspend196:                              ; preds = %resume.6.landing
  switch i8 -1, label %coro.ret [
    i8 0, label %await6.ready
    i8 1, label %await6.cleanup
  ], !dbg !1953

await6.cleanup:                                   ; preds = %AfterCoroSuspend196
  br label %cleanup131.from.await6.cleanup, !dbg !1953

cleanup131.from.await6.cleanup:                   ; preds = %await6.cleanup
  %.cleanup131207 = phi i32 [ 2, %await6.cleanup ]
  br label %cleanup131, !dbg !1953

lpad119:                                          ; preds = %await6.ready, %AfterCoroSave194
  %72 = landingpad { i8*, i32 }
          catch i8* null, !dbg !1935
  %ref.tmp117.reload.addr = getelementptr inbounds %_Z9adcTaskFnh.Frame, %_Z9adcTaskFnh.Frame* %FramePtr, i32 0, i32 33, !dbg !1935
  %ehselector.slot.reload.addr222 = getelementptr inbounds %_Z9adcTaskFnh.Frame, %_Z9adcTaskFnh.Frame* %FramePtr, i32 0, i32 5, !dbg !1935
  %exn.slot.reload.addr212 = getelementptr inbounds %_Z9adcTaskFnh.Frame, %_Z9adcTaskFnh.Frame* %FramePtr, i32 0, i32 4, !dbg !1935
  %73 = extractvalue { i8*, i32 } %72, 0, !dbg !1935
  store i8* %73, i8** %exn.slot.reload.addr212, align 4, !dbg !1935
  %74 = extractvalue { i8*, i32 } %72, 1, !dbg !1935
  store i32 %74, i32* %ehselector.slot.reload.addr222, align 4, !dbg !1935
  %call135 = call arm_aapcs_vfpcc %"struct.scp::core::future_t.5"* @_ZN3scp4core8future_tIvNS0_15awaitable_stateIvEEED2Ev(%"struct.scp::core::future_t.5"* %ref.tmp117.reload.addr) #3, !dbg !1953
  br label %catch136, !dbg !1953

catch136:                                         ; preds = %lpad119, %lpad91, %lpad70, %lpad49, %lpad32, %lpad18
  %exn.slot.reload.addr211 = getelementptr inbounds %_Z9adcTaskFnh.Frame, %_Z9adcTaskFnh.Frame* %FramePtr, i32 0, i32 4, !dbg !1920
  %exn137 = load i8*, i8** %exn.slot.reload.addr211, align 4, !dbg !1920
  %75 = call arm_aapcs_vfpcc i8* @__cxa_begin_catch(i8* %exn137) #3, !dbg !1920
  call arm_aapcs_vfpcc void @_ZN3scp4core9resumable12promise_type19unhandled_exceptionEv(%"struct.scp::core::resumable::promise_type"* %__promise), !dbg !1909
  br label %invoke.cont139

invoke.cont139:                                   ; preds = %catch136
  invoke arm_aapcs_vfpcc void @__cxa_end_catch()
          to label %invoke.cont140 unwind label %lpad2, !dbg !1909

invoke.cont140:                                   ; preds = %invoke.cont139
  br label %try.cont142, !dbg !1909

try.cont142:                                      ; preds = %invoke.cont140
  br label %coro.resumed.cont, !dbg !1909

coro.resumed.cont:                                ; preds = %try.cont142, %try.cont
  br label %coro.final, !dbg !1909

coro.final:                                       ; preds = %coro.resumed.cont
  call arm_aapcs_vfpcc void @_ZN3scp4core9resumable12promise_type13final_suspendEv(%"struct.scp::core::resumable::promise_type"* %__promise), !dbg !1909
  br label %invoke.cont144

invoke.cont144:                                   ; preds = %coro.final
  %ref.tmp143.reload.addr267 = getelementptr inbounds %_Z9adcTaskFnh.Frame, %_Z9adcTaskFnh.Frame* %FramePtr, i32 0, i32 36, !dbg !1909
  %call147 = call arm_aapcs_vfpcc zeroext i1 @_ZNSt12experimental13coroutines_v113suspend_never11await_readyEv(%"struct.std::experimental::coroutines_v1::suspend_never"* %ref.tmp143.reload.addr267), !dbg !1909
  br label %invoke.cont146

invoke.cont146:                                   ; preds = %invoke.cont144
  br i1 %call147, label %final.ready, label %CoroSave197, !dbg !1909

CoroSave197:                                      ; preds = %invoke.cont146
  %ResumeFn.addr = getelementptr inbounds %_Z9adcTaskFnh.Frame, %_Z9adcTaskFnh.Frame* %FramePtr, i32 0, i32 0, !dbg !1909
  store void (%_Z9adcTaskFnh.Frame*)* null, void (%_Z9adcTaskFnh.Frame*)** %ResumeFn.addr, !dbg !1909
  br label %AfterCoroSave198, !dbg !1909

AfterCoroSave198:                                 ; preds = %CoroSave197
  %ref.tmp149.reload.addr = getelementptr inbounds %_Z9adcTaskFnh.Frame, %_Z9adcTaskFnh.Frame* %FramePtr, i32 0, i32 38, !dbg !1909
  %agg.tmp148.reload.addr = getelementptr inbounds %_Z9adcTaskFnh.Frame, %_Z9adcTaskFnh.Frame* %FramePtr, i32 0, i32 37, !dbg !1909
  %ref.tmp143.reload.addr266 = getelementptr inbounds %_Z9adcTaskFnh.Frame, %_Z9adcTaskFnh.Frame* %FramePtr, i32 0, i32 36, !dbg !1909
  %call150 = call arm_aapcs_vfpcc i32 @_ZNSt12experimental13coroutines_v116coroutine_handleIN3scp4core9resumable12promise_typeEE12from_addressEPv(i8* %0) #3, !dbg !1909
  %coerce.dive151 = getelementptr inbounds %"struct.std::experimental::coroutines_v1::coroutine_handle", %"struct.std::experimental::coroutines_v1::coroutine_handle"* %ref.tmp149.reload.addr, i32 0, i32 0, !dbg !1909
  %coerce.dive152 = getelementptr inbounds %"struct.std::experimental::coroutines_v1::coroutine_handle.0", %"struct.std::experimental::coroutines_v1::coroutine_handle.0"* %coerce.dive151, i32 0, i32 0, !dbg !1909
  %coerce.val.ip153 = inttoptr i32 %call150 to i8*, !dbg !1909
  store i8* %coerce.val.ip153, i8** %coerce.dive152, align 4, !dbg !1909
  %76 = bitcast %"struct.std::experimental::coroutines_v1::coroutine_handle"* %ref.tmp149.reload.addr to %"struct.std::experimental::coroutines_v1::coroutine_handle.0"*, !dbg !1909
  %77 = bitcast %"struct.std::experimental::coroutines_v1::coroutine_handle.0"* %agg.tmp148.reload.addr to i8*, !dbg !1909
  %78 = bitcast %"struct.std::experimental::coroutines_v1::coroutine_handle.0"* %76 to i8*, !dbg !1909
  call void @llvm.memcpy.p0i8.p0i8.i32(i8* align 4 %77, i8* align 4 %78, i32 4, i1 false), !dbg !1909
  %coerce.dive154 = getelementptr inbounds %"struct.std::experimental::coroutines_v1::coroutine_handle.0", %"struct.std::experimental::coroutines_v1::coroutine_handle.0"* %agg.tmp148.reload.addr, i32 0, i32 0, !dbg !1909
  %79 = bitcast i8** %coerce.dive154 to [1 x i32]*, !dbg !1909
  %80 = load [1 x i32], [1 x i32]* %79, align 4, !dbg !1909
  call arm_aapcs_vfpcc void @_ZNSt12experimental13coroutines_v113suspend_never13await_suspendENS0_16coroutine_handleIvEE(%"struct.std::experimental::coroutines_v1::suspend_never"* %ref.tmp143.reload.addr266, [1 x i32] %80), !dbg !1909
  br label %CoroSuspend199

CoroSuspend199:                                   ; preds = %AfterCoroSave198
  br label %resume.7.landing, !dbg !1909

resume.7.landing:                                 ; preds = %CoroSuspend199
  br label %AfterCoroSuspend200, !dbg !1909

AfterCoroSuspend200:                              ; preds = %resume.7.landing
  switch i8 -1, label %coro.ret [
    i8 0, label %final.ready
    i8 1, label %final.cleanup
  ], !dbg !1909

final.cleanup:                                    ; preds = %AfterCoroSuspend200
  br label %cleanup158.from.final.cleanup, !dbg !1909

cleanup158.from.final.cleanup:                    ; preds = %final.cleanup
  %.cleanup158208 = phi i32 [ 2, %final.cleanup ]
  br label %cleanup158, !dbg !1909

await6.ready:                                     ; preds = %AfterCoroSuspend196, %invoke.cont120
  %ref.tmp117.reload.addr262 = getelementptr inbounds %_Z9adcTaskFnh.Frame, %_Z9adcTaskFnh.Frame* %FramePtr, i32 0, i32 33, !dbg !1952
  invoke arm_aapcs_vfpcc void @_ZNK3scp4core8future_tIvNS0_15awaitable_stateIvEEE12await_resumeEv(%"struct.scp::core::future_t.5"* %ref.tmp117.reload.addr262)
          to label %invoke.cont130 unwind label %lpad119, !dbg !1952

invoke.cont130:                                   ; preds = %await6.ready
  br label %cleanup131.from.invoke.cont130, !dbg !1953

cleanup131.from.invoke.cont130:                   ; preds = %invoke.cont130
  %.cleanup131 = phi i32 [ 0, %invoke.cont130 ]
  br label %cleanup131, !dbg !1953

cleanup131:                                       ; preds = %cleanup131.from.invoke.cont130, %cleanup131.from.await6.cleanup
  %cleanup.dest.slot.4 = phi i32 [ %.cleanup131, %cleanup131.from.invoke.cont130 ], [ %.cleanup131207, %cleanup131.from.await6.cleanup ]
  %ref.tmp117.reload.addr261 = getelementptr inbounds %_Z9adcTaskFnh.Frame, %_Z9adcTaskFnh.Frame* %FramePtr, i32 0, i32 33, !dbg !1953
  %call132 = call arm_aapcs_vfpcc %"struct.scp::core::future_t.5"* @_ZN3scp4core8future_tIvNS0_15awaitable_stateIvEEED2Ev(%"struct.scp::core::future_t.5"* %ref.tmp117.reload.addr261) #3, !dbg !1953
  %cond279 = icmp eq i32 %cleanup.dest.slot.4, 0
  br i1 %cond279, label %cleanup.cont134, label %cleanup158.from.cleanup131

cleanup158.from.cleanup131:                       ; preds = %cleanup131
  %cleanup.dest.slot.4.cleanup158 = phi i32 [ %cleanup.dest.slot.4, %cleanup131 ]
  br label %cleanup158

cleanup.cont134:                                  ; preds = %cleanup131
  br label %for.cond, !dbg !1954, !llvm.loop !1955

final.ready:                                      ; preds = %AfterCoroSuspend200, %invoke.cont146
  %ref.tmp143.reload.addr = getelementptr inbounds %_Z9adcTaskFnh.Frame, %_Z9adcTaskFnh.Frame* %FramePtr, i32 0, i32 36, !dbg !1909
  call arm_aapcs_vfpcc void @_ZNSt12experimental13coroutines_v113suspend_never12await_resumeEv(%"struct.std::experimental::coroutines_v1::suspend_never"* %ref.tmp143.reload.addr), !dbg !1909
  br label %invoke.cont156

invoke.cont156:                                   ; preds = %final.ready
  br label %cleanup158.from.invoke.cont156, !dbg !1909

cleanup158.from.invoke.cont156:                   ; preds = %invoke.cont156
  %.cleanup158 = phi i32 [ 0, %invoke.cont156 ]
  br label %cleanup158, !dbg !1909

cleanup158:                                       ; preds = %cleanup158.from.cleanup, %cleanup158.from.cleanup62, %cleanup158.from.cleanup83, %cleanup158.from.cleanup104, %cleanup158.from.cleanup131, %cleanup158.from.invoke.cont156, %cleanup158.from.final.cleanup, %cleanup158.from.await.cleanup, %cleanup158.from.init.cleanup
  %cleanup.dest.slot.5 = phi i32 [ %.cleanup158, %cleanup158.from.invoke.cont156 ], [ %.cleanup158208, %cleanup158.from.final.cleanup ], [ %cleanup.dest.slot.0.cleanup158, %cleanup158.from.cleanup ], [ %cleanup.dest.slot.1.cleanup158, %cleanup158.from.cleanup62 ], [ %cleanup.dest.slot.2.cleanup158, %cleanup158.from.cleanup83 ], [ %cleanup.dest.slot.3.cleanup158, %cleanup158.from.cleanup104 ], [ %cleanup.dest.slot.4.cleanup158, %cleanup158.from.cleanup131 ], [ %.cleanup158209, %cleanup158.from.await.cleanup ], [ %.cleanup158210, %cleanup158.from.init.cleanup ]
  %81 = icmp ne i8* %0, null, !dbg !1909
  br i1 %81, label %coro.free, label %after.coro.free, !dbg !1909

coro.free:                                        ; preds = %cleanup158
  call arm_aapcs_vfpcc void @_ZN3scp4core9resumable12promise_typedlEPv(i8* %0) #3, !dbg !1909
  br label %after.coro.free, !dbg !1909

after.coro.free:                                  ; preds = %cleanup158, %coro.free
  switch i32 %cleanup.dest.slot.5, label %unreachable [
    i32 0, label %cleanup.cont160
    i32 2, label %coro.ret
  ]

cleanup.cont160:                                  ; preds = %after.coro.free
  br label %coro.ret, !dbg !1909

coro.ret:                                         ; preds = %cleanup.cont160, %after.coro.free, %AfterCoroSuspend200, %AfterCoroSuspend196, %AfterCoroSuspend192, %AfterCoroSuspend188, %AfterCoroSuspend184, %AfterCoroSuspend180, %AfterCoroSuspend176, %AfterCoroSuspend
  br label %CoroEnd, !dbg !1909

CoroEnd:                                          ; preds = %coro.ret
  br label %AfterCoroEnd, !dbg !1909

AfterCoroEnd:                                     ; preds = %CoroEnd
  store i1 true, i1* %nrvo, align 1, !dbg !1909
  %cleanup.is_active = load i1, i1* %gro.active, align 1, !dbg !1916
  br i1 %cleanup.is_active, label %cleanup.action, label %cleanup.done, !dbg !1916

ehcleanup:                                        ; preds = %lpad2
  br label %CoroEnd201, !dbg !1909

CoroEnd201:                                       ; preds = %ehcleanup
  br label %AfterCoroEnd202, !dbg !1909

AfterCoroEnd202:                                  ; preds = %CoroEnd201
  br label %cleanup.cont157, !dbg !1909

cleanup.cont157:                                  ; preds = %AfterCoroEnd202
  br label %ehcleanup161, !dbg !1909

ehcleanup161:                                     ; preds = %cleanup.cont157, %lpad
  %82 = icmp ne i8* %0, null, !dbg !1909
  br i1 %82, label %coro.free162, label %after.coro.free163, !dbg !1909

coro.free162:                                     ; preds = %ehcleanup161
  call arm_aapcs_vfpcc void @_ZN3scp4core9resumable12promise_typedlEPv(i8* %0) #3, !dbg !1909
  br label %after.coro.free163, !dbg !1909

after.coro.free163:                               ; preds = %ehcleanup161, %coro.free162
  %cleanup.is_active167 = load i1, i1* %gro.active, align 1, !dbg !1916
  br i1 %cleanup.is_active167, label %cleanup.action168, label %cleanup.done170, !dbg !1916

cleanup.action:                                   ; preds = %AfterCoroEnd
  %nrvo.val = load i1, i1* %nrvo, align 1, !dbg !1916
  br i1 %nrvo.val, label %nrvo.skipdtor, label %nrvo.unused, !dbg !1916

nrvo.unused:                                      ; preds = %cleanup.action
  %call165 = call arm_aapcs_vfpcc %"struct.scp::core::resumable"* @_ZN3scp4core9resumableD2Ev(%"struct.scp::core::resumable"* %agg.result) #3, !dbg !1916
  br label %nrvo.skipdtor, !dbg !1916

nrvo.skipdtor:                                    ; preds = %nrvo.unused, %cleanup.action
  br label %cleanup.done, !dbg !1916

cleanup.done:                                     ; preds = %nrvo.skipdtor, %AfterCoroEnd
  ret void, !dbg !1916

cleanup.action168:                                ; preds = %after.coro.free163
  %call169 = call arm_aapcs_vfpcc %"struct.scp::core::resumable"* @_ZN3scp4core9resumableD2Ev(%"struct.scp::core::resumable"* %agg.result) #3, !dbg !1916
  br label %cleanup.done170, !dbg !1916

cleanup.done170:                                  ; preds = %cleanup.action168, %after.coro.free163
  br label %eh.resume, !dbg !1916

eh.resume:                                        ; preds = %cleanup.done170
  %exn171 = load i8*, i8** %exn.slot, align 4, !dbg !1909
  %sel = load i32, i32* %ehselector.slot, align 4, !dbg !1909
  %lpad.val = insertvalue { i8*, i32 } undef, i8* %exn171, 0, !dbg !1909
  %lpad.val172 = insertvalue { i8*, i32 } %lpad.val, i32 %sel, 1, !dbg !1909
  resume { i8*, i32 } %lpad.val172, !dbg !1909

unreachable:                                      ; preds = %after.coro.free
  unreachable
}

; Function Attrs: nounwind readnone speculatable
declare void @llvm.dbg.declare(metadata, metadata, metadata) #1

; Function Attrs: argmemonly nounwind readonly
declare token @llvm.coro.id(i32, i8* readnone, i8* nocapture readonly, i8*) #2

; Function Attrs: nounwind
declare i1 @llvm.coro.alloc(token) #3

; Function Attrs: noinline optnone
define linkonce_odr dso_local arm_aapcs_vfpcc i8* @_ZN3scp4core9resumable12promise_typenwEj(i32 %sz) #0 comdat align 2 !dbg !1958 {
entry:
  %sz.addr = alloca i32, align 4
  store i32 %sz, i32* %sz.addr, align 4
  call void @llvm.dbg.declare(metadata i32* %sz.addr, metadata !1959, metadata !DIExpression()), !dbg !1960
  %0 = load i32, i32* %sz.addr, align 4, !dbg !1961
  call arm_aapcs_vfpcc void (i8*, ...) @trace(i8* getelementptr inbounds ([21 x i8], [21 x i8]* @.str.1, i32 0, i32 0), i32 %0), !dbg !1962
  %1 = load i32, i32* %sz.addr, align 4, !dbg !1963
  %call = call arm_aapcs_vfpcc i8* @malloc(i32 %1) #3, !dbg !1964
  ret i8* %call, !dbg !1965
}

; Function Attrs: nounwind readnone
declare i32 @llvm.coro.size.i32() #4

; Function Attrs: nounwind
declare i8* @llvm.coro.begin(token, i8* writeonly) #3

; Function Attrs: noinline optnone
define linkonce_odr dso_local arm_aapcs_vfpcc void @_ZN3scp4core9resumable12promise_type17get_return_objectEv(%"struct.scp::core::resumable"* noalias sret %agg.result, %"struct.scp::core::resumable::promise_type"* %this) #0 comdat align 2 !dbg !1966 {
entry:
  %this.addr = alloca %"struct.scp::core::resumable::promise_type"*, align 4
  %agg.tmp = alloca %"struct.std::experimental::coroutines_v1::coroutine_handle", align 4
  store %"struct.scp::core::resumable::promise_type"* %this, %"struct.scp::core::resumable::promise_type"** %this.addr, align 4
  call void @llvm.dbg.declare(metadata %"struct.scp::core::resumable::promise_type"** %this.addr, metadata !1967, metadata !DIExpression()), !dbg !1969
  %this1 = load %"struct.scp::core::resumable::promise_type"*, %"struct.scp::core::resumable::promise_type"** %this.addr, align 4
  %call = call arm_aapcs_vfpcc i32 @_ZNSt12experimental13coroutines_v116coroutine_handleIN3scp4core9resumable12promise_typeEE12from_promiseERS5_(%"struct.scp::core::resumable::promise_type"* dereferenceable(1) %this1), !dbg !1970
  %coerce.dive = getelementptr inbounds %"struct.std::experimental::coroutines_v1::coroutine_handle", %"struct.std::experimental::coroutines_v1::coroutine_handle"* %agg.tmp, i32 0, i32 0, !dbg !1970
  %coerce.dive2 = getelementptr inbounds %"struct.std::experimental::coroutines_v1::coroutine_handle.0", %"struct.std::experimental::coroutines_v1::coroutine_handle.0"* %coerce.dive, i32 0, i32 0, !dbg !1970
  %coerce.val.ip = inttoptr i32 %call to i8*, !dbg !1970
  store i8* %coerce.val.ip, i8** %coerce.dive2, align 4, !dbg !1970
  %coerce.dive3 = getelementptr inbounds %"struct.std::experimental::coroutines_v1::coroutine_handle", %"struct.std::experimental::coroutines_v1::coroutine_handle"* %agg.tmp, i32 0, i32 0, !dbg !1971
  %coerce.dive4 = getelementptr inbounds %"struct.std::experimental::coroutines_v1::coroutine_handle.0", %"struct.std::experimental::coroutines_v1::coroutine_handle.0"* %coerce.dive3, i32 0, i32 0, !dbg !1971
  %0 = bitcast i8** %coerce.dive4 to [1 x i32]*, !dbg !1971
  %1 = load [1 x i32], [1 x i32]* %0, align 4, !dbg !1971
  %call5 = call arm_aapcs_vfpcc %"struct.scp::core::resumable"* @_ZN3scp4core9resumableC2ENSt12experimental13coroutines_v116coroutine_handleINS1_12promise_typeEEE(%"struct.scp::core::resumable"* %agg.result, [1 x i32] %1), !dbg !1971
  ret void, !dbg !1972
}

declare dso_local arm_aapcs_vfpcc i32 @__gxx_personality_v0(...)

; Function Attrs: noinline nounwind optnone
define linkonce_odr dso_local arm_aapcs_vfpcc void @_ZN3scp4core9resumable12promise_type15initial_suspendEv(%"struct.scp::core::resumable::promise_type"* %this) #5 comdat align 2 !dbg !1973 {
entry:
  %retval = alloca %"struct.std::experimental::coroutines_v1::suspend_never", align 1
  %this.addr = alloca %"struct.scp::core::resumable::promise_type"*, align 4
  store %"struct.scp::core::resumable::promise_type"* %this, %"struct.scp::core::resumable::promise_type"** %this.addr, align 4
  call void @llvm.dbg.declare(metadata %"struct.scp::core::resumable::promise_type"** %this.addr, metadata !1977, metadata !DIExpression()), !dbg !1978
  %this1 = load %"struct.scp::core::resumable::promise_type"*, %"struct.scp::core::resumable::promise_type"** %this.addr, align 4
  ret void, !dbg !1979
}

; Function Attrs: noinline nounwind optnone
define linkonce_odr dso_local arm_aapcs_vfpcc zeroext i1 @_ZNSt12experimental13coroutines_v113suspend_never11await_readyEv(%"struct.std::experimental::coroutines_v1::suspend_never"* %this) #5 comdat align 2 !dbg !1980 {
entry:
  %this.addr = alloca %"struct.std::experimental::coroutines_v1::suspend_never"*, align 4
  store %"struct.std::experimental::coroutines_v1::suspend_never"* %this, %"struct.std::experimental::coroutines_v1::suspend_never"** %this.addr, align 4
  call void @llvm.dbg.declare(metadata %"struct.std::experimental::coroutines_v1::suspend_never"** %this.addr, metadata !1981, metadata !DIExpression()), !dbg !1983
  %this1 = load %"struct.std::experimental::coroutines_v1::suspend_never"*, %"struct.std::experimental::coroutines_v1::suspend_never"** %this.addr, align 4
  ret i1 true, !dbg !1984
}

; Function Attrs: nounwind
declare token @llvm.coro.save(i8*) #3

; Function Attrs: noinline nounwind optnone
define linkonce_odr dso_local arm_aapcs_vfpcc void @_ZNSt12experimental13coroutines_v113suspend_never13await_suspendENS0_16coroutine_handleIvEE(%"struct.std::experimental::coroutines_v1::suspend_never"* %this, [1 x i32] %.coerce) #5 comdat align 2 !dbg !1985 {
entry:
  %0 = alloca %"struct.std::experimental::coroutines_v1::coroutine_handle.0", align 4
  %this.addr = alloca %"struct.std::experimental::coroutines_v1::suspend_never"*, align 4
  %coerce.dive = getelementptr inbounds %"struct.std::experimental::coroutines_v1::coroutine_handle.0", %"struct.std::experimental::coroutines_v1::coroutine_handle.0"* %0, i32 0, i32 0
  %1 = bitcast i8** %coerce.dive to [1 x i32]*
  store [1 x i32] %.coerce, [1 x i32]* %1, align 4
  store %"struct.std::experimental::coroutines_v1::suspend_never"* %this, %"struct.std::experimental::coroutines_v1::suspend_never"** %this.addr, align 4
  call void @llvm.dbg.declare(metadata %"struct.std::experimental::coroutines_v1::suspend_never"** %this.addr, metadata !1986, metadata !DIExpression()), !dbg !1987
  call void @llvm.dbg.declare(metadata %"struct.std::experimental::coroutines_v1::coroutine_handle.0"* %0, metadata !1988, metadata !DIExpression()), !dbg !1989
  %this1 = load %"struct.std::experimental::coroutines_v1::suspend_never"*, %"struct.std::experimental::coroutines_v1::suspend_never"** %this.addr, align 4
  ret void, !dbg !1990
}

; Function Attrs: noinline nounwind optnone
define linkonce_odr dso_local arm_aapcs_vfpcc i32 @_ZNSt12experimental13coroutines_v116coroutine_handleIN3scp4core9resumable12promise_typeEE12from_addressEPv(i8* %addr) #5 comdat align 2 personality i8* bitcast (i32 (...)* @__gxx_personality_v0 to i8*) !dbg !1991 {
entry:
  %retval = alloca %"struct.std::experimental::coroutines_v1::coroutine_handle", align 4
  %addr.addr = alloca i8*, align 4
  store i8* %addr, i8** %addr.addr, align 4
  call void @llvm.dbg.declare(metadata i8** %addr.addr, metadata !1992, metadata !DIExpression()), !dbg !1993
  call void @llvm.dbg.declare(metadata %"struct.std::experimental::coroutines_v1::coroutine_handle"* %retval, metadata !1994, metadata !DIExpression()), !dbg !1995
  %call = invoke arm_aapcs_vfpcc %"struct.std::experimental::coroutines_v1::coroutine_handle"* @_ZNSt12experimental13coroutines_v116coroutine_handleIN3scp4core9resumable12promise_typeEEC2Ev(%"struct.std::experimental::coroutines_v1::coroutine_handle"* %retval)
          to label %invoke.cont unwind label %terminate.lpad, !dbg !1995

invoke.cont:                                      ; preds = %entry
  %0 = load i8*, i8** %addr.addr, align 4, !dbg !1996
  %1 = bitcast %"struct.std::experimental::coroutines_v1::coroutine_handle"* %retval to %"struct.std::experimental::coroutines_v1::coroutine_handle.0"*, !dbg !1997
  %ptr = getelementptr inbounds %"struct.std::experimental::coroutines_v1::coroutine_handle.0", %"struct.std::experimental::coroutines_v1::coroutine_handle.0"* %1, i32 0, i32 0, !dbg !1998
  store i8* %0, i8** %ptr, align 4, !dbg !1999
  %coerce.dive = getelementptr inbounds %"struct.std::experimental::coroutines_v1::coroutine_handle", %"struct.std::experimental::coroutines_v1::coroutine_handle"* %retval, i32 0, i32 0, !dbg !2000
  %coerce.dive1 = getelementptr inbounds %"struct.std::experimental::coroutines_v1::coroutine_handle.0", %"struct.std::experimental::coroutines_v1::coroutine_handle.0"* %coerce.dive, i32 0, i32 0, !dbg !2000
  %2 = load i8*, i8** %coerce.dive1, align 4, !dbg !2000
  %coerce.val.pi = ptrtoint i8* %2 to i32, !dbg !2000
  ret i32 %coerce.val.pi, !dbg !2000

terminate.lpad:                                   ; preds = %entry
  %3 = landingpad { i8*, i32 }
          catch i8* null, !dbg !1995
  %4 = extractvalue { i8*, i32 } %3, 0, !dbg !1995
  call arm_aapcs_vfpcc void @__clang_call_terminate(i8* %4) #13, !dbg !1995
  unreachable, !dbg !1995
}

; Function Attrs: argmemonly nounwind
declare void @llvm.memcpy.p0i8.p0i8.i32(i8* nocapture writeonly, i8* nocapture readonly, i32, i1) #6

; Function Attrs: nounwind
declare i8 @llvm.coro.suspend(token, i1) #3

; Function Attrs: noinline nounwind optnone
define linkonce_odr dso_local arm_aapcs_vfpcc void @_ZNSt12experimental13coroutines_v113suspend_never12await_resumeEv(%"struct.std::experimental::coroutines_v1::suspend_never"* %this) #5 comdat align 2 !dbg !2001 {
entry:
  %this.addr = alloca %"struct.std::experimental::coroutines_v1::suspend_never"*, align 4
  store %"struct.std::experimental::coroutines_v1::suspend_never"* %this, %"struct.std::experimental::coroutines_v1::suspend_never"** %this.addr, align 4
  call void @llvm.dbg.declare(metadata %"struct.std::experimental::coroutines_v1::suspend_never"** %this.addr, metadata !2002, metadata !DIExpression()), !dbg !2003
  %this1 = load %"struct.std::experimental::coroutines_v1::suspend_never"*, %"struct.std::experimental::coroutines_v1::suspend_never"** %this.addr, align 4
  ret void, !dbg !2004
}

declare dso_local arm_aapcs_vfpcc i8* @__cxa_begin_catch(i8*)

; Function Attrs: noinline nounwind optnone
define linkonce_odr dso_local arm_aapcs_vfpcc void @_ZN3scp4core9resumable12promise_type19unhandled_exceptionEv(%"struct.scp::core::resumable::promise_type"* %this) #5 comdat align 2 !dbg !2005 {
entry:
  %this.addr = alloca %"struct.scp::core::resumable::promise_type"*, align 4
  store %"struct.scp::core::resumable::promise_type"* %this, %"struct.scp::core::resumable::promise_type"** %this.addr, align 4
  call void @llvm.dbg.declare(metadata %"struct.scp::core::resumable::promise_type"** %this.addr, metadata !2006, metadata !DIExpression()), !dbg !2007
  %this1 = load %"struct.scp::core::resumable::promise_type"*, %"struct.scp::core::resumable::promise_type"** %this.addr, align 4
  ret void, !dbg !2008
}

declare dso_local arm_aapcs_vfpcc void @__cxa_end_catch()

; Function Attrs: noinline noreturn nounwind
define linkonce_odr hidden arm_aapcs_vfpcc void @__clang_call_terminate(i8*) #7 comdat {
  %2 = call arm_aapcs_vfpcc i8* @__cxa_begin_catch(i8* %0) #3
  call arm_aapcs_vfpcc void @_ZSt9terminatev() #13
  unreachable
}

declare dso_local arm_aapcs_vfpcc void @_ZSt9terminatev()

; Function Attrs: noinline nounwind optnone
define linkonce_odr dso_local arm_aapcs_vfpcc zeroext i1 @_ZNSt12experimental13coroutines_v114suspend_always11await_readyEv(%"struct.std::experimental::coroutines_v1::suspend_always"* %this) #5 comdat align 2 !dbg !2009 {
entry:
  %this.addr = alloca %"struct.std::experimental::coroutines_v1::suspend_always"*, align 4
  store %"struct.std::experimental::coroutines_v1::suspend_always"* %this, %"struct.std::experimental::coroutines_v1::suspend_always"** %this.addr, align 4
  call void @llvm.dbg.declare(metadata %"struct.std::experimental::coroutines_v1::suspend_always"** %this.addr, metadata !2022, metadata !DIExpression()), !dbg !2024
  %this1 = load %"struct.std::experimental::coroutines_v1::suspend_always"*, %"struct.std::experimental::coroutines_v1::suspend_always"** %this.addr, align 4
  ret i1 false, !dbg !2025
}

; Function Attrs: noinline nounwind optnone
define linkonce_odr dso_local arm_aapcs_vfpcc void @_ZNSt12experimental13coroutines_v114suspend_always13await_suspendENS0_16coroutine_handleIvEE(%"struct.std::experimental::coroutines_v1::suspend_always"* %this, [1 x i32] %.coerce) #5 comdat align 2 !dbg !2026 {
entry:
  %0 = alloca %"struct.std::experimental::coroutines_v1::coroutine_handle.0", align 4
  %this.addr = alloca %"struct.std::experimental::coroutines_v1::suspend_always"*, align 4
  %coerce.dive = getelementptr inbounds %"struct.std::experimental::coroutines_v1::coroutine_handle.0", %"struct.std::experimental::coroutines_v1::coroutine_handle.0"* %0, i32 0, i32 0
  %1 = bitcast i8** %coerce.dive to [1 x i32]*
  store [1 x i32] %.coerce, [1 x i32]* %1, align 4
  store %"struct.std::experimental::coroutines_v1::suspend_always"* %this, %"struct.std::experimental::coroutines_v1::suspend_always"** %this.addr, align 4
  call void @llvm.dbg.declare(metadata %"struct.std::experimental::coroutines_v1::suspend_always"** %this.addr, metadata !2027, metadata !DIExpression()), !dbg !2028
  call void @llvm.dbg.declare(metadata %"struct.std::experimental::coroutines_v1::coroutine_handle.0"* %0, metadata !2029, metadata !DIExpression()), !dbg !2030
  %this1 = load %"struct.std::experimental::coroutines_v1::suspend_always"*, %"struct.std::experimental::coroutines_v1::suspend_always"** %this.addr, align 4
  ret void, !dbg !2031
}

; Function Attrs: noinline nounwind optnone
define linkonce_odr dso_local arm_aapcs_vfpcc void @_ZNSt12experimental13coroutines_v114suspend_always12await_resumeEv(%"struct.std::experimental::coroutines_v1::suspend_always"* %this) #5 comdat align 2 !dbg !2032 {
entry:
  %this.addr = alloca %"struct.std::experimental::coroutines_v1::suspend_always"*, align 4
  store %"struct.std::experimental::coroutines_v1::suspend_always"* %this, %"struct.std::experimental::coroutines_v1::suspend_always"** %this.addr, align 4
  call void @llvm.dbg.declare(metadata %"struct.std::experimental::coroutines_v1::suspend_always"** %this.addr, metadata !2033, metadata !DIExpression()), !dbg !2034
  %this1 = load %"struct.std::experimental::coroutines_v1::suspend_always"*, %"struct.std::experimental::coroutines_v1::suspend_always"** %this.addr, align 4
  ret void, !dbg !2035
}

declare dso_local arm_aapcs_vfpcc void @_ZN3scp7drivers9start_adcEh(%"struct.scp::core::future_t"* sret, i8 zeroext) #8

; Function Attrs: noinline nounwind optnone
define linkonce_odr dso_local arm_aapcs_vfpcc zeroext i1 @_ZNK3scp4core8future_tIhNS0_15awaitable_stateIhEEE11await_readyEv(%"struct.scp::core::future_t"* %this) #5 comdat align 2 !dbg !2036 {
entry:
  %this.addr = alloca %"struct.scp::core::future_t"*, align 4
  store %"struct.scp::core::future_t"* %this, %"struct.scp::core::future_t"** %this.addr, align 4
  call void @llvm.dbg.declare(metadata %"struct.scp::core::future_t"** %this.addr, metadata !2178, metadata !DIExpression()), !dbg !2180
  %this1 = load %"struct.scp::core::future_t"*, %"struct.scp::core::future_t"** %this.addr, align 4
  %_state = getelementptr inbounds %"struct.scp::core::future_t", %"struct.scp::core::future_t"* %this1, i32 0, i32 0, !dbg !2181
  %call = call arm_aapcs_vfpcc %"struct.scp::core::counted_awaitable_state"* @_ZNK3scp4core11counted_ptrINS0_15awaitable_stateIhEEEptEv(%"struct.scp::core::counted_ptr"* %_state), !dbg !2181
  %0 = bitcast %"struct.scp::core::counted_awaitable_state"* %call to %"struct.scp::core::awaitable_state_base"*, !dbg !2182
  %_ready = getelementptr inbounds %"struct.scp::core::awaitable_state_base", %"struct.scp::core::awaitable_state_base"* %0, i32 0, i32 1, !dbg !2182
  %1 = load i8, i8* %_ready, align 4, !dbg !2182
  %tobool = trunc i8 %1 to i1, !dbg !2182
  ret i1 %tobool, !dbg !2183
}

; Function Attrs: noinline optnone
define linkonce_odr dso_local arm_aapcs_vfpcc void @_ZN3scp4core8future_tIhNS0_15awaitable_stateIhEEE13await_suspendENSt12experimental13coroutines_v116coroutine_handleIvEE(%"struct.scp::core::future_t"* %this, [1 x i32] %resume_cb.coerce) #0 comdat align 2 !dbg !2184 {
entry:
  %resume_cb = alloca %"struct.std::experimental::coroutines_v1::coroutine_handle.0", align 4
  %this.addr = alloca %"struct.scp::core::future_t"*, align 4
  %agg.tmp = alloca %"struct.std::experimental::coroutines_v1::coroutine_handle.0", align 4
  %coerce.dive = getelementptr inbounds %"struct.std::experimental::coroutines_v1::coroutine_handle.0", %"struct.std::experimental::coroutines_v1::coroutine_handle.0"* %resume_cb, i32 0, i32 0
  %0 = bitcast i8** %coerce.dive to [1 x i32]*
  store [1 x i32] %resume_cb.coerce, [1 x i32]* %0, align 4
  store %"struct.scp::core::future_t"* %this, %"struct.scp::core::future_t"** %this.addr, align 4
  call void @llvm.dbg.declare(metadata %"struct.scp::core::future_t"** %this.addr, metadata !2185, metadata !DIExpression()), !dbg !2187
  call void @llvm.dbg.declare(metadata %"struct.std::experimental::coroutines_v1::coroutine_handle.0"* %resume_cb, metadata !2188, metadata !DIExpression()), !dbg !2189
  %this1 = load %"struct.scp::core::future_t"*, %"struct.scp::core::future_t"** %this.addr, align 4
  call arm_aapcs_vfpcc void @_ZN3scp4core6task_t16blockRunningTaskEv(), !dbg !2190
  %_state = getelementptr inbounds %"struct.scp::core::future_t", %"struct.scp::core::future_t"* %this1, i32 0, i32 0, !dbg !2191
  %call = call arm_aapcs_vfpcc %"struct.scp::core::counted_awaitable_state"* @_ZNK3scp4core11counted_ptrINS0_15awaitable_stateIhEEEptEv(%"struct.scp::core::counted_ptr"* %_state), !dbg !2191
  %1 = bitcast %"struct.scp::core::counted_awaitable_state"* %call to %"struct.scp::core::awaitable_state_base"*, !dbg !2192
  %2 = bitcast %"struct.std::experimental::coroutines_v1::coroutine_handle.0"* %agg.tmp to i8*, !dbg !2193
  %3 = bitcast %"struct.std::experimental::coroutines_v1::coroutine_handle.0"* %resume_cb to i8*, !dbg !2193
  call void @llvm.memcpy.p0i8.p0i8.i32(i8* align 4 %2, i8* align 4 %3, i32 4, i1 false), !dbg !2193
  %coerce.dive2 = getelementptr inbounds %"struct.std::experimental::coroutines_v1::coroutine_handle.0", %"struct.std::experimental::coroutines_v1::coroutine_handle.0"* %agg.tmp, i32 0, i32 0, !dbg !2192
  %4 = bitcast i8** %coerce.dive2 to [1 x i32]*, !dbg !2192
  %5 = load [1 x i32], [1 x i32]* %4, align 4, !dbg !2192
  call arm_aapcs_vfpcc void @_ZN3scp4core20awaitable_state_base22set_coroutine_callbackENSt12experimental13coroutines_v116coroutine_handleIvEE(%"struct.scp::core::awaitable_state_base"* %1, [1 x i32] %5), !dbg !2192
  ret void, !dbg !2194
}

; Function Attrs: noinline optnone
define linkonce_odr dso_local arm_aapcs_vfpcc zeroext i8 @_ZNK3scp4core8future_tIhNS0_15awaitable_stateIhEEE12await_resumeEv(%"struct.scp::core::future_t"* %this) #0 comdat align 2 !dbg !2195 {
entry:
  %this.addr = alloca %"struct.scp::core::future_t"*, align 4
  store %"struct.scp::core::future_t"* %this, %"struct.scp::core::future_t"** %this.addr, align 4
  call void @llvm.dbg.declare(metadata %"struct.scp::core::future_t"** %this.addr, metadata !2199, metadata !DIExpression()), !dbg !2200
  %this1 = load %"struct.scp::core::future_t"*, %"struct.scp::core::future_t"** %this.addr, align 4
  %_state = getelementptr inbounds %"struct.scp::core::future_t", %"struct.scp::core::future_t"* %this1, i32 0, i32 0, !dbg !2201
  %call = call arm_aapcs_vfpcc %"struct.scp::core::counted_awaitable_state"* @_ZNK3scp4core11counted_ptrINS0_15awaitable_stateIhEEEptEv(%"struct.scp::core::counted_ptr"* %_state), !dbg !2201
  %0 = bitcast %"struct.scp::core::counted_awaitable_state"* %call to %"struct.scp::core::awaitable_state"*, !dbg !2202
  %call2 = call arm_aapcs_vfpcc zeroext i8 @_ZN3scp4core15awaitable_stateIhE9get_valueEv(%"struct.scp::core::awaitable_state"* %0), !dbg !2202
  ret i8 %call2, !dbg !2203
}

; Function Attrs: noinline nounwind optnone
define linkonce_odr dso_local arm_aapcs_vfpcc %"struct.scp::core::future_t"* @_ZN3scp4core8future_tIhNS0_15awaitable_stateIhEEED2Ev(%"struct.scp::core::future_t"* returned %this) unnamed_addr #5 comdat align 2 !dbg !2204 {
entry:
  %this.addr = alloca %"struct.scp::core::future_t"*, align 4
  store %"struct.scp::core::future_t"* %this, %"struct.scp::core::future_t"** %this.addr, align 4
  call void @llvm.dbg.declare(metadata %"struct.scp::core::future_t"** %this.addr, metadata !2208, metadata !DIExpression()), !dbg !2209
  %this1 = load %"struct.scp::core::future_t"*, %"struct.scp::core::future_t"** %this.addr, align 4
  %_state = getelementptr inbounds %"struct.scp::core::future_t", %"struct.scp::core::future_t"* %this1, i32 0, i32 0, !dbg !2210
  %call = call arm_aapcs_vfpcc %"struct.scp::core::counted_ptr"* @_ZN3scp4core11counted_ptrINS0_15awaitable_stateIhEEED2Ev(%"struct.scp::core::counted_ptr"* %_state) #3, !dbg !2210
  ret %"struct.scp::core::future_t"* %this1, !dbg !2212
}

declare dso_local arm_aapcs_vfpcc void @_ZN3scp7drivers9read_adc3Eh(%"struct.scp::core::future_t.1"* sret, i8 zeroext) #8

; Function Attrs: noinline nounwind optnone
define linkonce_odr dso_local arm_aapcs_vfpcc zeroext i1 @_ZNK3scp4core8future_tItNS0_15awaitable_stateItEEE11await_readyEv(%"struct.scp::core::future_t.1"* %this) #5 comdat align 2 !dbg !2213 {
entry:
  %this.addr = alloca %"struct.scp::core::future_t.1"*, align 4
  store %"struct.scp::core::future_t.1"* %this, %"struct.scp::core::future_t.1"** %this.addr, align 4
  call void @llvm.dbg.declare(metadata %"struct.scp::core::future_t.1"** %this.addr, metadata !2324, metadata !DIExpression()), !dbg !2326
  %this1 = load %"struct.scp::core::future_t.1"*, %"struct.scp::core::future_t.1"** %this.addr, align 4
  %_state = getelementptr inbounds %"struct.scp::core::future_t.1", %"struct.scp::core::future_t.1"* %this1, i32 0, i32 0, !dbg !2327
  %call = call arm_aapcs_vfpcc %"struct.scp::core::counted_awaitable_state.3"* @_ZNK3scp4core11counted_ptrINS0_15awaitable_stateItEEEptEv(%"struct.scp::core::counted_ptr.2"* %_state), !dbg !2327
  %0 = bitcast %"struct.scp::core::counted_awaitable_state.3"* %call to %"struct.scp::core::awaitable_state_base"*, !dbg !2328
  %_ready = getelementptr inbounds %"struct.scp::core::awaitable_state_base", %"struct.scp::core::awaitable_state_base"* %0, i32 0, i32 1, !dbg !2328
  %1 = load i8, i8* %_ready, align 4, !dbg !2328
  %tobool = trunc i8 %1 to i1, !dbg !2328
  ret i1 %tobool, !dbg !2329
}

; Function Attrs: noinline optnone
define linkonce_odr dso_local arm_aapcs_vfpcc void @_ZN3scp4core8future_tItNS0_15awaitable_stateItEEE13await_suspendENSt12experimental13coroutines_v116coroutine_handleIvEE(%"struct.scp::core::future_t.1"* %this, [1 x i32] %resume_cb.coerce) #0 comdat align 2 !dbg !2330 {
entry:
  %resume_cb = alloca %"struct.std::experimental::coroutines_v1::coroutine_handle.0", align 4
  %this.addr = alloca %"struct.scp::core::future_t.1"*, align 4
  %agg.tmp = alloca %"struct.std::experimental::coroutines_v1::coroutine_handle.0", align 4
  %coerce.dive = getelementptr inbounds %"struct.std::experimental::coroutines_v1::coroutine_handle.0", %"struct.std::experimental::coroutines_v1::coroutine_handle.0"* %resume_cb, i32 0, i32 0
  %0 = bitcast i8** %coerce.dive to [1 x i32]*
  store [1 x i32] %resume_cb.coerce, [1 x i32]* %0, align 4
  store %"struct.scp::core::future_t.1"* %this, %"struct.scp::core::future_t.1"** %this.addr, align 4
  call void @llvm.dbg.declare(metadata %"struct.scp::core::future_t.1"** %this.addr, metadata !2331, metadata !DIExpression()), !dbg !2333
  call void @llvm.dbg.declare(metadata %"struct.std::experimental::coroutines_v1::coroutine_handle.0"* %resume_cb, metadata !2334, metadata !DIExpression()), !dbg !2335
  %this1 = load %"struct.scp::core::future_t.1"*, %"struct.scp::core::future_t.1"** %this.addr, align 4
  call arm_aapcs_vfpcc void @_ZN3scp4core6task_t16blockRunningTaskEv(), !dbg !2336
  %_state = getelementptr inbounds %"struct.scp::core::future_t.1", %"struct.scp::core::future_t.1"* %this1, i32 0, i32 0, !dbg !2337
  %call = call arm_aapcs_vfpcc %"struct.scp::core::counted_awaitable_state.3"* @_ZNK3scp4core11counted_ptrINS0_15awaitable_stateItEEEptEv(%"struct.scp::core::counted_ptr.2"* %_state), !dbg !2337
  %1 = bitcast %"struct.scp::core::counted_awaitable_state.3"* %call to %"struct.scp::core::awaitable_state_base"*, !dbg !2338
  %2 = bitcast %"struct.std::experimental::coroutines_v1::coroutine_handle.0"* %agg.tmp to i8*, !dbg !2339
  %3 = bitcast %"struct.std::experimental::coroutines_v1::coroutine_handle.0"* %resume_cb to i8*, !dbg !2339
  call void @llvm.memcpy.p0i8.p0i8.i32(i8* align 4 %2, i8* align 4 %3, i32 4, i1 false), !dbg !2339
  %coerce.dive2 = getelementptr inbounds %"struct.std::experimental::coroutines_v1::coroutine_handle.0", %"struct.std::experimental::coroutines_v1::coroutine_handle.0"* %agg.tmp, i32 0, i32 0, !dbg !2338
  %4 = bitcast i8** %coerce.dive2 to [1 x i32]*, !dbg !2338
  %5 = load [1 x i32], [1 x i32]* %4, align 4, !dbg !2338
  call arm_aapcs_vfpcc void @_ZN3scp4core20awaitable_state_base22set_coroutine_callbackENSt12experimental13coroutines_v116coroutine_handleIvEE(%"struct.scp::core::awaitable_state_base"* %1, [1 x i32] %5), !dbg !2338
  ret void, !dbg !2340
}

; Function Attrs: noinline optnone
define linkonce_odr dso_local arm_aapcs_vfpcc zeroext i16 @_ZNK3scp4core8future_tItNS0_15awaitable_stateItEEE12await_resumeEv(%"struct.scp::core::future_t.1"* %this) #0 comdat align 2 !dbg !2341 {
entry:
  %this.addr = alloca %"struct.scp::core::future_t.1"*, align 4
  store %"struct.scp::core::future_t.1"* %this, %"struct.scp::core::future_t.1"** %this.addr, align 4
  call void @llvm.dbg.declare(metadata %"struct.scp::core::future_t.1"** %this.addr, metadata !2345, metadata !DIExpression()), !dbg !2346
  %this1 = load %"struct.scp::core::future_t.1"*, %"struct.scp::core::future_t.1"** %this.addr, align 4
  %_state = getelementptr inbounds %"struct.scp::core::future_t.1", %"struct.scp::core::future_t.1"* %this1, i32 0, i32 0, !dbg !2347
  %call = call arm_aapcs_vfpcc %"struct.scp::core::counted_awaitable_state.3"* @_ZNK3scp4core11counted_ptrINS0_15awaitable_stateItEEEptEv(%"struct.scp::core::counted_ptr.2"* %_state), !dbg !2347
  %0 = bitcast %"struct.scp::core::counted_awaitable_state.3"* %call to %"struct.scp::core::awaitable_state.4"*, !dbg !2348
  %call2 = call arm_aapcs_vfpcc zeroext i16 @_ZN3scp4core15awaitable_stateItE9get_valueEv(%"struct.scp::core::awaitable_state.4"* %0), !dbg !2348
  ret i16 %call2, !dbg !2349
}

; Function Attrs: noinline nounwind optnone
define linkonce_odr dso_local arm_aapcs_vfpcc %"struct.scp::core::future_t.1"* @_ZN3scp4core8future_tItNS0_15awaitable_stateItEEED2Ev(%"struct.scp::core::future_t.1"* returned %this) unnamed_addr #5 comdat align 2 !dbg !2350 {
entry:
  %this.addr = alloca %"struct.scp::core::future_t.1"*, align 4
  store %"struct.scp::core::future_t.1"* %this, %"struct.scp::core::future_t.1"** %this.addr, align 4
  call void @llvm.dbg.declare(metadata %"struct.scp::core::future_t.1"** %this.addr, metadata !2354, metadata !DIExpression()), !dbg !2355
  %this1 = load %"struct.scp::core::future_t.1"*, %"struct.scp::core::future_t.1"** %this.addr, align 4
  %_state = getelementptr inbounds %"struct.scp::core::future_t.1", %"struct.scp::core::future_t.1"* %this1, i32 0, i32 0, !dbg !2356
  %call = call arm_aapcs_vfpcc %"struct.scp::core::counted_ptr.2"* @_ZN3scp4core11counted_ptrINS0_15awaitable_stateItEEED2Ev(%"struct.scp::core::counted_ptr.2"* %_state) #3, !dbg !2356
  ret %"struct.scp::core::future_t.1"* %this1, !dbg !2358
}

declare dso_local arm_aapcs_vfpcc void @trace(i8*, ...) #8

declare dso_local arm_aapcs_vfpcc void @_ZN3scp7drivers13wait_on_ticksEm(%"struct.scp::core::future_t.5"* sret, i32) #8

; Function Attrs: noinline nounwind optnone
define linkonce_odr dso_local arm_aapcs_vfpcc zeroext i1 @_ZNK3scp4core8future_tIvNS0_15awaitable_stateIvEEE11await_readyEv(%"struct.scp::core::future_t.5"* %this) #5 comdat align 2 !dbg !2359 {
entry:
  %this.addr = alloca %"struct.scp::core::future_t.5"*, align 4
  store %"struct.scp::core::future_t.5"* %this, %"struct.scp::core::future_t.5"** %this.addr, align 4
  call void @llvm.dbg.declare(metadata %"struct.scp::core::future_t.5"** %this.addr, metadata !2465, metadata !DIExpression()), !dbg !2467
  %this1 = load %"struct.scp::core::future_t.5"*, %"struct.scp::core::future_t.5"** %this.addr, align 4
  %_state = getelementptr inbounds %"struct.scp::core::future_t.5", %"struct.scp::core::future_t.5"* %this1, i32 0, i32 0, !dbg !2468
  %call = call arm_aapcs_vfpcc %"struct.scp::core::counted_awaitable_state.7"* @_ZNK3scp4core11counted_ptrINS0_15awaitable_stateIvEEEptEv(%"struct.scp::core::counted_ptr.6"* %_state), !dbg !2468
  %0 = bitcast %"struct.scp::core::counted_awaitable_state.7"* %call to %"struct.scp::core::awaitable_state_base"*, !dbg !2469
  %_ready = getelementptr inbounds %"struct.scp::core::awaitable_state_base", %"struct.scp::core::awaitable_state_base"* %0, i32 0, i32 1, !dbg !2469
  %1 = load i8, i8* %_ready, align 4, !dbg !2469
  %tobool = trunc i8 %1 to i1, !dbg !2469
  ret i1 %tobool, !dbg !2470
}

; Function Attrs: noinline optnone
define linkonce_odr dso_local arm_aapcs_vfpcc void @_ZN3scp4core8future_tIvNS0_15awaitable_stateIvEEE13await_suspendENSt12experimental13coroutines_v116coroutine_handleIvEE(%"struct.scp::core::future_t.5"* %this, [1 x i32] %resume_cb.coerce) #0 comdat align 2 !dbg !2471 {
entry:
  %resume_cb = alloca %"struct.std::experimental::coroutines_v1::coroutine_handle.0", align 4
  %this.addr = alloca %"struct.scp::core::future_t.5"*, align 4
  %agg.tmp = alloca %"struct.std::experimental::coroutines_v1::coroutine_handle.0", align 4
  %coerce.dive = getelementptr inbounds %"struct.std::experimental::coroutines_v1::coroutine_handle.0", %"struct.std::experimental::coroutines_v1::coroutine_handle.0"* %resume_cb, i32 0, i32 0
  %0 = bitcast i8** %coerce.dive to [1 x i32]*
  store [1 x i32] %resume_cb.coerce, [1 x i32]* %0, align 4
  store %"struct.scp::core::future_t.5"* %this, %"struct.scp::core::future_t.5"** %this.addr, align 4
  call void @llvm.dbg.declare(metadata %"struct.scp::core::future_t.5"** %this.addr, metadata !2472, metadata !DIExpression()), !dbg !2474
  call void @llvm.dbg.declare(metadata %"struct.std::experimental::coroutines_v1::coroutine_handle.0"* %resume_cb, metadata !2475, metadata !DIExpression()), !dbg !2476
  %this1 = load %"struct.scp::core::future_t.5"*, %"struct.scp::core::future_t.5"** %this.addr, align 4
  call arm_aapcs_vfpcc void @_ZN3scp4core6task_t16blockRunningTaskEv(), !dbg !2477
  %_state = getelementptr inbounds %"struct.scp::core::future_t.5", %"struct.scp::core::future_t.5"* %this1, i32 0, i32 0, !dbg !2478
  %call = call arm_aapcs_vfpcc %"struct.scp::core::counted_awaitable_state.7"* @_ZNK3scp4core11counted_ptrINS0_15awaitable_stateIvEEEptEv(%"struct.scp::core::counted_ptr.6"* %_state), !dbg !2478
  %1 = bitcast %"struct.scp::core::counted_awaitable_state.7"* %call to %"struct.scp::core::awaitable_state_base"*, !dbg !2479
  %2 = bitcast %"struct.std::experimental::coroutines_v1::coroutine_handle.0"* %agg.tmp to i8*, !dbg !2480
  %3 = bitcast %"struct.std::experimental::coroutines_v1::coroutine_handle.0"* %resume_cb to i8*, !dbg !2480
  call void @llvm.memcpy.p0i8.p0i8.i32(i8* align 4 %2, i8* align 4 %3, i32 4, i1 false), !dbg !2480
  %coerce.dive2 = getelementptr inbounds %"struct.std::experimental::coroutines_v1::coroutine_handle.0", %"struct.std::experimental::coroutines_v1::coroutine_handle.0"* %agg.tmp, i32 0, i32 0, !dbg !2479
  %4 = bitcast i8** %coerce.dive2 to [1 x i32]*, !dbg !2479
  %5 = load [1 x i32], [1 x i32]* %4, align 4, !dbg !2479
  call arm_aapcs_vfpcc void @_ZN3scp4core20awaitable_state_base22set_coroutine_callbackENSt12experimental13coroutines_v116coroutine_handleIvEE(%"struct.scp::core::awaitable_state_base"* %1, [1 x i32] %5), !dbg !2479
  ret void, !dbg !2481
}

; Function Attrs: noinline optnone
define linkonce_odr dso_local arm_aapcs_vfpcc void @_ZNK3scp4core8future_tIvNS0_15awaitable_stateIvEEE12await_resumeEv(%"struct.scp::core::future_t.5"* %this) #0 comdat align 2 !dbg !2482 {
entry:
  %this.addr = alloca %"struct.scp::core::future_t.5"*, align 4
  store %"struct.scp::core::future_t.5"* %this, %"struct.scp::core::future_t.5"** %this.addr, align 4
  call void @llvm.dbg.declare(metadata %"struct.scp::core::future_t.5"** %this.addr, metadata !2486, metadata !DIExpression()), !dbg !2487
  %this1 = load %"struct.scp::core::future_t.5"*, %"struct.scp::core::future_t.5"** %this.addr, align 4
  %_state = getelementptr inbounds %"struct.scp::core::future_t.5", %"struct.scp::core::future_t.5"* %this1, i32 0, i32 0, !dbg !2488
  %call = call arm_aapcs_vfpcc %"struct.scp::core::counted_awaitable_state.7"* @_ZNK3scp4core11counted_ptrINS0_15awaitable_stateIvEEEptEv(%"struct.scp::core::counted_ptr.6"* %_state), !dbg !2488
  %0 = bitcast %"struct.scp::core::counted_awaitable_state.7"* %call to %"struct.scp::core::awaitable_state.8"*, !dbg !2489
  call arm_aapcs_vfpcc void @_ZNK3scp4core15awaitable_stateIvE9get_valueEv(%"struct.scp::core::awaitable_state.8"* %0), !dbg !2489
  ret void, !dbg !2490
}

; Function Attrs: noinline nounwind optnone
define linkonce_odr dso_local arm_aapcs_vfpcc %"struct.scp::core::future_t.5"* @_ZN3scp4core8future_tIvNS0_15awaitable_stateIvEEED2Ev(%"struct.scp::core::future_t.5"* returned %this) unnamed_addr #5 comdat align 2 !dbg !2491 {
entry:
  %this.addr = alloca %"struct.scp::core::future_t.5"*, align 4
  store %"struct.scp::core::future_t.5"* %this, %"struct.scp::core::future_t.5"** %this.addr, align 4
  call void @llvm.dbg.declare(metadata %"struct.scp::core::future_t.5"** %this.addr, metadata !2495, metadata !DIExpression()), !dbg !2496
  %this1 = load %"struct.scp::core::future_t.5"*, %"struct.scp::core::future_t.5"** %this.addr, align 4
  %_state = getelementptr inbounds %"struct.scp::core::future_t.5", %"struct.scp::core::future_t.5"* %this1, i32 0, i32 0, !dbg !2497
  %call = call arm_aapcs_vfpcc %"struct.scp::core::counted_ptr.6"* @_ZN3scp4core11counted_ptrINS0_15awaitable_stateIvEEED2Ev(%"struct.scp::core::counted_ptr.6"* %_state) #3, !dbg !2497
  ret %"struct.scp::core::future_t.5"* %this1, !dbg !2499
}

; Function Attrs: noinline nounwind optnone
define linkonce_odr dso_local arm_aapcs_vfpcc void @_ZN3scp4core9resumable12promise_type13final_suspendEv(%"struct.scp::core::resumable::promise_type"* %this) #5 comdat align 2 !dbg !2500 {
entry:
  %retval = alloca %"struct.std::experimental::coroutines_v1::suspend_never", align 1
  %this.addr = alloca %"struct.scp::core::resumable::promise_type"*, align 4
  store %"struct.scp::core::resumable::promise_type"* %this, %"struct.scp::core::resumable::promise_type"** %this.addr, align 4
  call void @llvm.dbg.declare(metadata %"struct.scp::core::resumable::promise_type"** %this.addr, metadata !2502, metadata !DIExpression()), !dbg !2503
  %this1 = load %"struct.scp::core::resumable::promise_type"*, %"struct.scp::core::resumable::promise_type"** %this.addr, align 4
  ret void, !dbg !2504
}

; Function Attrs: nounwind
declare i1 @llvm.coro.end(i8*, i1) #3

; Function Attrs: noinline nounwind optnone
define linkonce_odr dso_local arm_aapcs_vfpcc void @_ZN3scp4core9resumable12promise_typedlEPv(i8* %p) #5 comdat align 2 personality i8* bitcast (i32 (...)* @__gxx_personality_v0 to i8*) !dbg !2505 {
entry:
  %p.addr = alloca i8*, align 4
  store i8* %p, i8** %p.addr, align 4
  call void @llvm.dbg.declare(metadata i8** %p.addr, metadata !2506, metadata !DIExpression()), !dbg !2507
  invoke arm_aapcs_vfpcc void (i8*, ...) @trace(i8* getelementptr inbounds ([21 x i8], [21 x i8]* @.str.2, i32 0, i32 0))
          to label %invoke.cont unwind label %terminate.lpad, !dbg !2508

invoke.cont:                                      ; preds = %entry
  %0 = load i8*, i8** %p.addr, align 4, !dbg !2509
  %tobool = icmp ne i8* %0, null, !dbg !2509
  br i1 %tobool, label %if.then, label %if.end, !dbg !2511

if.then:                                          ; preds = %invoke.cont
  %1 = load i8*, i8** %p.addr, align 4, !dbg !2512
  call arm_aapcs_vfpcc void @free(i8* %1) #3, !dbg !2513
  br label %if.end, !dbg !2513

if.end:                                           ; preds = %if.then, %invoke.cont
  ret void, !dbg !2514

terminate.lpad:                                   ; preds = %entry
  %2 = landingpad { i8*, i32 }
          catch i8* null, !dbg !2508
  %3 = extractvalue { i8*, i32 } %2, 0, !dbg !2508
  call arm_aapcs_vfpcc void @__clang_call_terminate(i8* %3) #13, !dbg !2508
  unreachable, !dbg !2508
}

; Function Attrs: argmemonly nounwind readonly
declare i8* @llvm.coro.free(token, i8* nocapture readonly) #2

; Function Attrs: noinline nounwind optnone
define linkonce_odr dso_local arm_aapcs_vfpcc %"struct.scp::core::resumable"* @_ZN3scp4core9resumableD2Ev(%"struct.scp::core::resumable"* returned %this) unnamed_addr #5 comdat align 2 personality i8* bitcast (i32 (...)* @__gxx_personality_v0 to i8*) !dbg !2515 {
entry:
  %retval = alloca %"struct.scp::core::resumable"*, align 4
  %this.addr = alloca %"struct.scp::core::resumable"*, align 4
  store %"struct.scp::core::resumable"* %this, %"struct.scp::core::resumable"** %this.addr, align 4
  call void @llvm.dbg.declare(metadata %"struct.scp::core::resumable"** %this.addr, metadata !2516, metadata !DIExpression()), !dbg !2518
  %this1 = load %"struct.scp::core::resumable"*, %"struct.scp::core::resumable"** %this.addr, align 4
  store %"struct.scp::core::resumable"* %this1, %"struct.scp::core::resumable"** %retval, align 4
  %_coroutine = getelementptr inbounds %"struct.scp::core::resumable", %"struct.scp::core::resumable"* %this1, i32 0, i32 0, !dbg !2519
  %0 = bitcast %"struct.std::experimental::coroutines_v1::coroutine_handle"* %_coroutine to %"struct.std::experimental::coroutines_v1::coroutine_handle.0"*, !dbg !2519
  %call = invoke arm_aapcs_vfpcc zeroext i1 @_ZNKSt12experimental13coroutines_v116coroutine_handleIvEcvbEv(%"struct.std::experimental::coroutines_v1::coroutine_handle.0"* %0)
          to label %invoke.cont unwind label %terminate.lpad, !dbg !2519

invoke.cont:                                      ; preds = %entry
  br i1 %call, label %if.then, label %if.end, !dbg !2522

if.then:                                          ; preds = %invoke.cont
  %_coroutine2 = getelementptr inbounds %"struct.scp::core::resumable", %"struct.scp::core::resumable"* %this1, i32 0, i32 0, !dbg !2523
  %1 = bitcast %"struct.std::experimental::coroutines_v1::coroutine_handle"* %_coroutine2 to %"struct.std::experimental::coroutines_v1::coroutine_handle.0"*, !dbg !2523
  invoke arm_aapcs_vfpcc void @_ZNKSt12experimental13coroutines_v116coroutine_handleIvE7destroyEv(%"struct.std::experimental::coroutines_v1::coroutine_handle.0"* %1)
          to label %invoke.cont3 unwind label %terminate.lpad, !dbg !2525

invoke.cont3:                                     ; preds = %if.then
  br label %if.end, !dbg !2526

if.end:                                           ; preds = %invoke.cont3, %invoke.cont
  %2 = load %"struct.scp::core::resumable"*, %"struct.scp::core::resumable"** %retval, align 4, !dbg !2527
  ret %"struct.scp::core::resumable"* %2, !dbg !2527

terminate.lpad:                                   ; preds = %if.then, %entry
  %3 = landingpad { i8*, i32 }
          catch i8* null, !dbg !2519
  %4 = extractvalue { i8*, i32 } %3, 0, !dbg !2519
  call arm_aapcs_vfpcc void @__clang_call_terminate(i8* %4) #13, !dbg !2519
  unreachable, !dbg !2519
}

; Function Attrs: nounwind
declare dso_local arm_aapcs_vfpcc i8* @malloc(i32) #9

; Function Attrs: noinline optnone
define linkonce_odr dso_local arm_aapcs_vfpcc i32 @_ZNSt12experimental13coroutines_v116coroutine_handleIN3scp4core9resumable12promise_typeEE12from_promiseERS5_(%"struct.scp::core::resumable::promise_type"* dereferenceable(1) %promise) #0 comdat align 2 !dbg !2528 {
entry:
  %retval = alloca %"struct.std::experimental::coroutines_v1::coroutine_handle", align 4
  %promise.addr = alloca %"struct.scp::core::resumable::promise_type"*, align 4
  store %"struct.scp::core::resumable::promise_type"* %promise, %"struct.scp::core::resumable::promise_type"** %promise.addr, align 4
  call void @llvm.dbg.declare(metadata %"struct.scp::core::resumable::promise_type"** %promise.addr, metadata !2529, metadata !DIExpression()), !dbg !2530
  call void @llvm.dbg.declare(metadata %"struct.std::experimental::coroutines_v1::coroutine_handle"* %retval, metadata !2531, metadata !DIExpression()), !dbg !2532
  %call = call arm_aapcs_vfpcc %"struct.std::experimental::coroutines_v1::coroutine_handle"* @_ZNSt12experimental13coroutines_v116coroutine_handleIN3scp4core9resumable12promise_typeEEC2Ev(%"struct.std::experimental::coroutines_v1::coroutine_handle"* %retval), !dbg !2532
  %0 = load %"struct.scp::core::resumable::promise_type"*, %"struct.scp::core::resumable::promise_type"** %promise.addr, align 4, !dbg !2533
  %1 = bitcast %"struct.scp::core::resumable::promise_type"* %0 to i8*, !dbg !2534
  %2 = getelementptr inbounds i8, i8* %1, i32 -8, !dbg !2535
  %3 = bitcast %"struct.std::experimental::coroutines_v1::coroutine_handle"* %retval to %"struct.std::experimental::coroutines_v1::coroutine_handle.0"*, !dbg !2536
  %ptr = getelementptr inbounds %"struct.std::experimental::coroutines_v1::coroutine_handle.0", %"struct.std::experimental::coroutines_v1::coroutine_handle.0"* %3, i32 0, i32 0, !dbg !2537
  store i8* %2, i8** %ptr, align 4, !dbg !2538
  %coerce.dive = getelementptr inbounds %"struct.std::experimental::coroutines_v1::coroutine_handle", %"struct.std::experimental::coroutines_v1::coroutine_handle"* %retval, i32 0, i32 0, !dbg !2539
  %coerce.dive1 = getelementptr inbounds %"struct.std::experimental::coroutines_v1::coroutine_handle.0", %"struct.std::experimental::coroutines_v1::coroutine_handle.0"* %coerce.dive, i32 0, i32 0, !dbg !2539
  %4 = load i8*, i8** %coerce.dive1, align 4, !dbg !2539
  %coerce.val.pi = ptrtoint i8* %4 to i32, !dbg !2539
  ret i32 %coerce.val.pi, !dbg !2539
}

; Function Attrs: noinline nounwind optnone
define linkonce_odr dso_local arm_aapcs_vfpcc %"struct.scp::core::resumable"* @_ZN3scp4core9resumableC2ENSt12experimental13coroutines_v116coroutine_handleINS1_12promise_typeEEE(%"struct.scp::core::resumable"* returned %this, [1 x i32] %coroutine.coerce) unnamed_addr #5 comdat align 2 !dbg !2540 {
entry:
  %coroutine = alloca %"struct.std::experimental::coroutines_v1::coroutine_handle", align 4
  %this.addr = alloca %"struct.scp::core::resumable"*, align 4
  %coerce.dive = getelementptr inbounds %"struct.std::experimental::coroutines_v1::coroutine_handle", %"struct.std::experimental::coroutines_v1::coroutine_handle"* %coroutine, i32 0, i32 0
  %coerce.dive1 = getelementptr inbounds %"struct.std::experimental::coroutines_v1::coroutine_handle.0", %"struct.std::experimental::coroutines_v1::coroutine_handle.0"* %coerce.dive, i32 0, i32 0
  %0 = bitcast i8** %coerce.dive1 to [1 x i32]*
  store [1 x i32] %coroutine.coerce, [1 x i32]* %0, align 4
  store %"struct.scp::core::resumable"* %this, %"struct.scp::core::resumable"** %this.addr, align 4
  call void @llvm.dbg.declare(metadata %"struct.scp::core::resumable"** %this.addr, metadata !2541, metadata !DIExpression()), !dbg !2542
  call void @llvm.dbg.declare(metadata %"struct.std::experimental::coroutines_v1::coroutine_handle"* %coroutine, metadata !2543, metadata !DIExpression()), !dbg !2544
  %this2 = load %"struct.scp::core::resumable"*, %"struct.scp::core::resumable"** %this.addr, align 4
  %_coroutine = getelementptr inbounds %"struct.scp::core::resumable", %"struct.scp::core::resumable"* %this2, i32 0, i32 0, !dbg !2545
  %1 = bitcast %"struct.std::experimental::coroutines_v1::coroutine_handle"* %_coroutine to i8*, !dbg !2545
  %2 = bitcast %"struct.std::experimental::coroutines_v1::coroutine_handle"* %coroutine to i8*, !dbg !2545
  call void @llvm.memcpy.p0i8.p0i8.i32(i8* align 4 %1, i8* align 4 %2, i32 4, i1 false), !dbg !2545
  ret %"struct.scp::core::resumable"* %this2, !dbg !2546
}

; Function Attrs: noinline optnone
define linkonce_odr dso_local arm_aapcs_vfpcc %"struct.std::experimental::coroutines_v1::coroutine_handle"* @_ZNSt12experimental13coroutines_v116coroutine_handleIN3scp4core9resumable12promise_typeEEC2Ev(%"struct.std::experimental::coroutines_v1::coroutine_handle"* returned %this) unnamed_addr #0 comdat align 2 !dbg !2547 {
entry:
  %this.addr = alloca %"struct.std::experimental::coroutines_v1::coroutine_handle"*, align 4
  store %"struct.std::experimental::coroutines_v1::coroutine_handle"* %this, %"struct.std::experimental::coroutines_v1::coroutine_handle"** %this.addr, align 4
  call void @llvm.dbg.declare(metadata %"struct.std::experimental::coroutines_v1::coroutine_handle"** %this.addr, metadata !2552, metadata !DIExpression()), !dbg !2554
  %this1 = load %"struct.std::experimental::coroutines_v1::coroutine_handle"*, %"struct.std::experimental::coroutines_v1::coroutine_handle"** %this.addr, align 4
  %0 = bitcast %"struct.std::experimental::coroutines_v1::coroutine_handle"* %this1 to %"struct.std::experimental::coroutines_v1::coroutine_handle.0"*, !dbg !2555
  %call = call arm_aapcs_vfpcc %"struct.std::experimental::coroutines_v1::coroutine_handle.0"* @_ZNSt12experimental13coroutines_v116coroutine_handleIvEC2Ev(%"struct.std::experimental::coroutines_v1::coroutine_handle.0"* %0), !dbg !2555
  ret %"struct.std::experimental::coroutines_v1::coroutine_handle"* %this1, !dbg !2555
}

; Function Attrs: nounwind readnone
declare i8* @llvm.coro.promise(i8* nocapture, i32, i1) #4

; Function Attrs: noinline nounwind optnone
define linkonce_odr dso_local arm_aapcs_vfpcc %"struct.std::experimental::coroutines_v1::coroutine_handle.0"* @_ZNSt12experimental13coroutines_v116coroutine_handleIvEC2Ev(%"struct.std::experimental::coroutines_v1::coroutine_handle.0"* returned %this) unnamed_addr #5 comdat align 2 !dbg !2556 {
entry:
  %this.addr = alloca %"struct.std::experimental::coroutines_v1::coroutine_handle.0"*, align 4
  store %"struct.std::experimental::coroutines_v1::coroutine_handle.0"* %this, %"struct.std::experimental::coroutines_v1::coroutine_handle.0"** %this.addr, align 4
  call void @llvm.dbg.declare(metadata %"struct.std::experimental::coroutines_v1::coroutine_handle.0"** %this.addr, metadata !2557, metadata !DIExpression()), !dbg !2558
  %this1 = load %"struct.std::experimental::coroutines_v1::coroutine_handle.0"*, %"struct.std::experimental::coroutines_v1::coroutine_handle.0"** %this.addr, align 4
  %ptr = getelementptr inbounds %"struct.std::experimental::coroutines_v1::coroutine_handle.0", %"struct.std::experimental::coroutines_v1::coroutine_handle.0"* %this1, i32 0, i32 0, !dbg !2559
  store i8* null, i8** %ptr, align 4, !dbg !2559
  ret %"struct.std::experimental::coroutines_v1::coroutine_handle.0"* %this1, !dbg !2560
}

; Function Attrs: noinline nounwind optnone
define linkonce_odr dso_local arm_aapcs_vfpcc %"struct.scp::core::counted_awaitable_state"* @_ZNK3scp4core11counted_ptrINS0_15awaitable_stateIhEEEptEv(%"struct.scp::core::counted_ptr"* %this) #5 comdat align 2 !dbg !2561 {
entry:
  %this.addr = alloca %"struct.scp::core::counted_ptr"*, align 4
  store %"struct.scp::core::counted_ptr"* %this, %"struct.scp::core::counted_ptr"** %this.addr, align 4
  call void @llvm.dbg.declare(metadata %"struct.scp::core::counted_ptr"** %this.addr, metadata !2562, metadata !DIExpression()), !dbg !2564
  %this1 = load %"struct.scp::core::counted_ptr"*, %"struct.scp::core::counted_ptr"** %this.addr, align 4
  %_p = getelementptr inbounds %"struct.scp::core::counted_ptr", %"struct.scp::core::counted_ptr"* %this1, i32 0, i32 0, !dbg !2565
  %0 = load %"struct.scp::core::counted_awaitable_state"*, %"struct.scp::core::counted_awaitable_state"** %_p, align 4, !dbg !2565
  ret %"struct.scp::core::counted_awaitable_state"* %0, !dbg !2566
}

; Function Attrs: noinline optnone
define linkonce_odr dso_local arm_aapcs_vfpcc zeroext i8 @_ZN3scp4core15awaitable_stateIhE9get_valueEv(%"struct.scp::core::awaitable_state"* %this) #0 comdat align 2 personality i8* bitcast (i32 (...)* @__gxx_personality_v0 to i8*) !dbg !2567 {
entry:
  %this.addr = alloca %"struct.scp::core::awaitable_state"*, align 4
  %exn.slot = alloca i8*
  %ehselector.slot = alloca i32
  store %"struct.scp::core::awaitable_state"* %this, %"struct.scp::core::awaitable_state"** %this.addr, align 4
  call void @llvm.dbg.declare(metadata %"struct.scp::core::awaitable_state"** %this.addr, metadata !2571, metadata !DIExpression()), !dbg !2573
  %this1 = load %"struct.scp::core::awaitable_state"*, %"struct.scp::core::awaitable_state"** %this.addr, align 4
  %0 = bitcast %"struct.scp::core::awaitable_state"* %this1 to %"struct.scp::core::awaitable_state_base"*, !dbg !2574
  %_ready = getelementptr inbounds %"struct.scp::core::awaitable_state_base", %"struct.scp::core::awaitable_state_base"* %0, i32 0, i32 1, !dbg !2574
  %1 = load i8, i8* %_ready, align 4, !dbg !2574
  %tobool = trunc i8 %1 to i1, !dbg !2574
  br i1 %tobool, label %if.end, label %if.then, !dbg !2576

if.then:                                          ; preds = %entry
  %exception = call arm_aapcs_vfpcc i8* @__cxa_allocate_exception(i32 8) #3, !dbg !2577
  %2 = bitcast i8* %exception to %"struct.scp::core::future_exception"*, !dbg !2577
  %call = invoke arm_aapcs_vfpcc %"struct.scp::core::future_exception"* @_ZN3scp4core16future_exceptionC2ENS0_12future_errorE(%"struct.scp::core::future_exception"* %2, i32 0)
          to label %invoke.cont unwind label %lpad, !dbg !2578

invoke.cont:                                      ; preds = %if.then
  call arm_aapcs_vfpcc void @__cxa_throw(i8* %exception, i8* bitcast ({ i8*, i8*, i8* }* @_ZTIN3scp4core16future_exceptionE to i8*), i8* bitcast (%"struct.scp::core::future_exception"* (%"struct.scp::core::future_exception"*)* @_ZN3scp4core16future_exceptionD2Ev to i8*)) #14, !dbg !2577
  unreachable, !dbg !2577

lpad:                                             ; preds = %if.then
  %3 = landingpad { i8*, i32 }
          cleanup, !dbg !2579
  %4 = extractvalue { i8*, i32 } %3, 0, !dbg !2579
  store i8* %4, i8** %exn.slot, align 4, !dbg !2579
  %5 = extractvalue { i8*, i32 } %3, 1, !dbg !2579
  store i32 %5, i32* %ehselector.slot, align 4, !dbg !2579
  call arm_aapcs_vfpcc void @__cxa_free_exception(i8* %exception) #3, !dbg !2577
  br label %eh.resume, !dbg !2577

if.end:                                           ; preds = %entry
  %_value = getelementptr inbounds %"struct.scp::core::awaitable_state", %"struct.scp::core::awaitable_state"* %this1, i32 0, i32 1, !dbg !2580
  %6 = load i8, i8* %_value, align 1, !dbg !2580
  ret i8 %6, !dbg !2581

eh.resume:                                        ; preds = %lpad
  %exn = load i8*, i8** %exn.slot, align 4, !dbg !2577
  %sel = load i32, i32* %ehselector.slot, align 4, !dbg !2577
  %lpad.val = insertvalue { i8*, i32 } undef, i8* %exn, 0, !dbg !2577
  %lpad.val2 = insertvalue { i8*, i32 } %lpad.val, i32 %sel, 1, !dbg !2577
  resume { i8*, i32 } %lpad.val2, !dbg !2577
}

declare dso_local arm_aapcs_vfpcc i8* @__cxa_allocate_exception(i32)

; Function Attrs: noinline nounwind optnone
define linkonce_odr dso_local arm_aapcs_vfpcc %"struct.scp::core::future_exception"* @_ZN3scp4core16future_exceptionC2ENS0_12future_errorE(%"struct.scp::core::future_exception"* returned %this, i32 %fe) unnamed_addr #5 comdat align 2 !dbg !2582 {
entry:
  %this.addr = alloca %"struct.scp::core::future_exception"*, align 4
  %fe.addr = alloca i32, align 4
  store %"struct.scp::core::future_exception"* %this, %"struct.scp::core::future_exception"** %this.addr, align 4
  call void @llvm.dbg.declare(metadata %"struct.scp::core::future_exception"** %this.addr, metadata !2593, metadata !DIExpression()), !dbg !2595
  store i32 %fe, i32* %fe.addr, align 4
  call void @llvm.dbg.declare(metadata i32* %fe.addr, metadata !2596, metadata !DIExpression()), !dbg !2597
  %this1 = load %"struct.scp::core::future_exception"*, %"struct.scp::core::future_exception"** %this.addr, align 4
  %0 = bitcast %"struct.scp::core::future_exception"* %this1 to %"class.std::exception"*, !dbg !2598
  %call = call arm_aapcs_vfpcc %"class.std::exception"* @_ZNSt9exceptionC2Ev(%"class.std::exception"* %0) #3, !dbg !2599
  %1 = bitcast %"struct.scp::core::future_exception"* %this1 to i32 (...)***, !dbg !2598
  store i32 (...)** bitcast (i8** getelementptr inbounds ({ [5 x i8*] }, { [5 x i8*] }* @_ZTVN3scp4core16future_exceptionE, i32 0, inrange i32 0, i32 2) to i32 (...)**), i32 (...)*** %1, align 4, !dbg !2598
  %_error = getelementptr inbounds %"struct.scp::core::future_exception", %"struct.scp::core::future_exception"* %this1, i32 0, i32 1, !dbg !2600
  %2 = load i32, i32* %fe.addr, align 4, !dbg !2601
  store i32 %2, i32* %_error, align 4, !dbg !2600
  ret %"struct.scp::core::future_exception"* %this1, !dbg !2602
}

declare dso_local arm_aapcs_vfpcc void @__cxa_free_exception(i8*)

; Function Attrs: noinline nounwind optnone
define linkonce_odr dso_local arm_aapcs_vfpcc %"struct.scp::core::future_exception"* @_ZN3scp4core16future_exceptionD2Ev(%"struct.scp::core::future_exception"* returned %this) unnamed_addr #5 comdat align 2 !dbg !2603 {
entry:
  %this.addr = alloca %"struct.scp::core::future_exception"*, align 4
  store %"struct.scp::core::future_exception"* %this, %"struct.scp::core::future_exception"** %this.addr, align 4
  call void @llvm.dbg.declare(metadata %"struct.scp::core::future_exception"** %this.addr, metadata !2607, metadata !DIExpression()), !dbg !2608
  %this1 = load %"struct.scp::core::future_exception"*, %"struct.scp::core::future_exception"** %this.addr, align 4
  %0 = bitcast %"struct.scp::core::future_exception"* %this1 to %"class.std::exception"*, !dbg !2609
  %call = call arm_aapcs_vfpcc %"class.std::exception"* @_ZNSt9exceptionD2Ev(%"class.std::exception"* %0) #3, !dbg !2609
  ret %"struct.scp::core::future_exception"* %this1, !dbg !2611
}

declare dso_local arm_aapcs_vfpcc void @__cxa_throw(i8*, i8*, i8*)

; Function Attrs: noinline nounwind optnone
define linkonce_odr dso_local arm_aapcs_vfpcc %"class.std::exception"* @_ZNSt9exceptionC2Ev(%"class.std::exception"* returned %this) unnamed_addr #5 comdat align 2 !dbg !2612 {
entry:
  %this.addr = alloca %"class.std::exception"*, align 4
  store %"class.std::exception"* %this, %"class.std::exception"** %this.addr, align 4
  call void @llvm.dbg.declare(metadata %"class.std::exception"** %this.addr, metadata !2617, metadata !DIExpression()), !dbg !2619
  %this1 = load %"class.std::exception"*, %"class.std::exception"** %this.addr, align 4
  %0 = bitcast %"class.std::exception"* %this1 to i32 (...)***, !dbg !2620
  store i32 (...)** bitcast (i8** getelementptr inbounds ({ [5 x i8*] }, { [5 x i8*] }* @_ZTVSt9exception, i32 0, inrange i32 0, i32 2) to i32 (...)**), i32 (...)*** %0, align 4, !dbg !2620
  ret %"class.std::exception"* %this1, !dbg !2621
}

; Function Attrs: noinline nounwind optnone
define linkonce_odr dso_local arm_aapcs_vfpcc void @_ZN3scp4core16future_exceptionD0Ev(%"struct.scp::core::future_exception"* %this) unnamed_addr #5 comdat align 2 !dbg !2622 {
entry:
  %this.addr = alloca %"struct.scp::core::future_exception"*, align 4
  store %"struct.scp::core::future_exception"* %this, %"struct.scp::core::future_exception"** %this.addr, align 4
  call void @llvm.dbg.declare(metadata %"struct.scp::core::future_exception"** %this.addr, metadata !2623, metadata !DIExpression()), !dbg !2624
  %this1 = load %"struct.scp::core::future_exception"*, %"struct.scp::core::future_exception"** %this.addr, align 4
  %call = call arm_aapcs_vfpcc %"struct.scp::core::future_exception"* @_ZN3scp4core16future_exceptionD2Ev(%"struct.scp::core::future_exception"* %this1) #3, !dbg !2625
  %0 = bitcast %"struct.scp::core::future_exception"* %this1 to i8*, !dbg !2625
  call arm_aapcs_vfpcc void @_ZdlPv(i8* %0) #15, !dbg !2625
  ret void, !dbg !2625
}

; Function Attrs: nounwind
declare dso_local arm_aapcs_vfpcc i8* @_ZNKSt9exception4whatEv(%"class.std::exception"*) unnamed_addr #9

; Function Attrs: nobuiltin nounwind
declare dso_local arm_aapcs_vfpcc void @_ZdlPv(i8*) #10

; Function Attrs: nounwind
declare dso_local arm_aapcs_vfpcc %"class.std::exception"* @_ZNSt9exceptionD2Ev(%"class.std::exception"* returned) unnamed_addr #9

; Function Attrs: noinline nounwind optnone
define linkonce_odr dso_local arm_aapcs_vfpcc %"struct.scp::core::counted_ptr"* @_ZN3scp4core11counted_ptrINS0_15awaitable_stateIhEEED2Ev(%"struct.scp::core::counted_ptr"* returned %this) unnamed_addr #5 comdat align 2 personality i8* bitcast (i32 (...)* @__gxx_personality_v0 to i8*) !dbg !2626 {
entry:
  %this.addr = alloca %"struct.scp::core::counted_ptr"*, align 4
  store %"struct.scp::core::counted_ptr"* %this, %"struct.scp::core::counted_ptr"** %this.addr, align 4
  call void @llvm.dbg.declare(metadata %"struct.scp::core::counted_ptr"** %this.addr, metadata !2627, metadata !DIExpression()), !dbg !2629
  %this1 = load %"struct.scp::core::counted_ptr"*, %"struct.scp::core::counted_ptr"** %this.addr, align 4
  invoke arm_aapcs_vfpcc void @_ZN3scp4core11counted_ptrINS0_15awaitable_stateIhEEE7_unlockEv(%"struct.scp::core::counted_ptr"* %this1)
          to label %invoke.cont unwind label %terminate.lpad, !dbg !2630

invoke.cont:                                      ; preds = %entry
  ret %"struct.scp::core::counted_ptr"* %this1, !dbg !2632

terminate.lpad:                                   ; preds = %entry
  %0 = landingpad { i8*, i32 }
          catch i8* null, !dbg !2630
  %1 = extractvalue { i8*, i32 } %0, 0, !dbg !2630
  call arm_aapcs_vfpcc void @__clang_call_terminate(i8* %1) #13, !dbg !2630
  unreachable, !dbg !2630
}

; Function Attrs: noinline optnone
define linkonce_odr dso_local arm_aapcs_vfpcc void @_ZN3scp4core11counted_ptrINS0_15awaitable_stateIhEEE7_unlockEv(%"struct.scp::core::counted_ptr"* %this) #0 comdat align 2 !dbg !2633 {
entry:
  %this.addr = alloca %"struct.scp::core::counted_ptr"*, align 4
  %t = alloca %"struct.scp::core::counted_awaitable_state"*, align 4
  store %"struct.scp::core::counted_ptr"* %this, %"struct.scp::core::counted_ptr"** %this.addr, align 4
  call void @llvm.dbg.declare(metadata %"struct.scp::core::counted_ptr"** %this.addr, metadata !2634, metadata !DIExpression()), !dbg !2635
  %this1 = load %"struct.scp::core::counted_ptr"*, %"struct.scp::core::counted_ptr"** %this.addr, align 4
  %_p = getelementptr inbounds %"struct.scp::core::counted_ptr", %"struct.scp::core::counted_ptr"* %this1, i32 0, i32 0, !dbg !2636
  %0 = load %"struct.scp::core::counted_awaitable_state"*, %"struct.scp::core::counted_awaitable_state"** %_p, align 4, !dbg !2636
  %cmp = icmp ne %"struct.scp::core::counted_awaitable_state"* %0, null, !dbg !2638
  br i1 %cmp, label %if.then, label %if.end, !dbg !2639

if.then:                                          ; preds = %entry
  call void @llvm.dbg.declare(metadata %"struct.scp::core::counted_awaitable_state"** %t, metadata !2640, metadata !DIExpression()), !dbg !2642
  %_p2 = getelementptr inbounds %"struct.scp::core::counted_ptr", %"struct.scp::core::counted_ptr"* %this1, i32 0, i32 0, !dbg !2643
  %1 = load %"struct.scp::core::counted_awaitable_state"*, %"struct.scp::core::counted_awaitable_state"** %_p2, align 4, !dbg !2643
  store %"struct.scp::core::counted_awaitable_state"* %1, %"struct.scp::core::counted_awaitable_state"** %t, align 4, !dbg !2642
  %_p3 = getelementptr inbounds %"struct.scp::core::counted_ptr", %"struct.scp::core::counted_ptr"* %this1, i32 0, i32 0, !dbg !2644
  store %"struct.scp::core::counted_awaitable_state"* null, %"struct.scp::core::counted_awaitable_state"** %_p3, align 4, !dbg !2645
  %2 = load %"struct.scp::core::counted_awaitable_state"*, %"struct.scp::core::counted_awaitable_state"** %t, align 4, !dbg !2646
  call arm_aapcs_vfpcc void @_ZN3scp4core23counted_awaitable_stateINS0_15awaitable_stateIhEEE6unlockEv(%"struct.scp::core::counted_awaitable_state"* %2), !dbg !2647
  br label %if.end, !dbg !2648

if.end:                                           ; preds = %if.then, %entry
  ret void, !dbg !2649
}

; Function Attrs: noinline nounwind optnone
define linkonce_odr dso_local arm_aapcs_vfpcc void @_ZN3scp4core23counted_awaitable_stateINS0_15awaitable_stateIhEEE6unlockEv(%"struct.scp::core::counted_awaitable_state"* %this) #5 comdat align 2 !dbg !2650 {
entry:
  %this.addr = alloca %"struct.scp::core::counted_awaitable_state"*, align 4
  store %"struct.scp::core::counted_awaitable_state"* %this, %"struct.scp::core::counted_awaitable_state"** %this.addr, align 4
  call void @llvm.dbg.declare(metadata %"struct.scp::core::counted_awaitable_state"** %this.addr, metadata !2651, metadata !DIExpression()), !dbg !2652
  %this1 = load %"struct.scp::core::counted_awaitable_state"*, %"struct.scp::core::counted_awaitable_state"** %this.addr, align 4
  %_count = getelementptr inbounds %"struct.scp::core::counted_awaitable_state", %"struct.scp::core::counted_awaitable_state"* %this1, i32 0, i32 1, !dbg !2653
  %0 = load volatile i32, i32* %_count, align 4, !dbg !2655
  %dec = add nsw i32 %0, -1, !dbg !2655
  store volatile i32 %dec, i32* %_count, align 4, !dbg !2655
  %cmp = icmp eq i32 %dec, 0, !dbg !2656
  br i1 %cmp, label %if.then, label %if.end, !dbg !2657

if.then:                                          ; preds = %entry
  %isnull = icmp eq %"struct.scp::core::counted_awaitable_state"* %this1, null, !dbg !2658
  br i1 %isnull, label %delete.end, label %delete.notnull, !dbg !2658

delete.notnull:                                   ; preds = %if.then
  %call = call arm_aapcs_vfpcc %"struct.scp::core::counted_awaitable_state"* @_ZN3scp4core23counted_awaitable_stateINS0_15awaitable_stateIhEEED2Ev(%"struct.scp::core::counted_awaitable_state"* %this1) #3, !dbg !2658
  %1 = bitcast %"struct.scp::core::counted_awaitable_state"* %this1 to i8*, !dbg !2658
  call arm_aapcs_vfpcc void @_ZdlPv(i8* %1) #15, !dbg !2658
  br label %delete.end, !dbg !2658

delete.end:                                       ; preds = %delete.notnull, %if.then
  br label %if.end, !dbg !2658

if.end:                                           ; preds = %delete.end, %entry
  ret void, !dbg !2659
}

; Function Attrs: noinline nounwind optnone
define linkonce_odr dso_local arm_aapcs_vfpcc %"struct.scp::core::counted_awaitable_state"* @_ZN3scp4core23counted_awaitable_stateINS0_15awaitable_stateIhEEED2Ev(%"struct.scp::core::counted_awaitable_state"* returned %this) unnamed_addr #5 comdat align 2 !dbg !2660 {
entry:
  %this.addr = alloca %"struct.scp::core::counted_awaitable_state"*, align 4
  store %"struct.scp::core::counted_awaitable_state"* %this, %"struct.scp::core::counted_awaitable_state"** %this.addr, align 4
  call void @llvm.dbg.declare(metadata %"struct.scp::core::counted_awaitable_state"** %this.addr, metadata !2661, metadata !DIExpression()), !dbg !2662
  %this1 = load %"struct.scp::core::counted_awaitable_state"*, %"struct.scp::core::counted_awaitable_state"** %this.addr, align 4
  ret %"struct.scp::core::counted_awaitable_state"* %this1, !dbg !2663
}

; Function Attrs: noinline nounwind optnone
define linkonce_odr dso_local arm_aapcs_vfpcc %"struct.scp::core::counted_awaitable_state.3"* @_ZNK3scp4core11counted_ptrINS0_15awaitable_stateItEEEptEv(%"struct.scp::core::counted_ptr.2"* %this) #5 comdat align 2 !dbg !2664 {
entry:
  %this.addr = alloca %"struct.scp::core::counted_ptr.2"*, align 4
  store %"struct.scp::core::counted_ptr.2"* %this, %"struct.scp::core::counted_ptr.2"** %this.addr, align 4
  call void @llvm.dbg.declare(metadata %"struct.scp::core::counted_ptr.2"** %this.addr, metadata !2665, metadata !DIExpression()), !dbg !2667
  %this1 = load %"struct.scp::core::counted_ptr.2"*, %"struct.scp::core::counted_ptr.2"** %this.addr, align 4
  %_p = getelementptr inbounds %"struct.scp::core::counted_ptr.2", %"struct.scp::core::counted_ptr.2"* %this1, i32 0, i32 0, !dbg !2668
  %0 = load %"struct.scp::core::counted_awaitable_state.3"*, %"struct.scp::core::counted_awaitable_state.3"** %_p, align 4, !dbg !2668
  ret %"struct.scp::core::counted_awaitable_state.3"* %0, !dbg !2669
}

; Function Attrs: noinline optnone
define linkonce_odr dso_local arm_aapcs_vfpcc zeroext i16 @_ZN3scp4core15awaitable_stateItE9get_valueEv(%"struct.scp::core::awaitable_state.4"* %this) #0 comdat align 2 personality i8* bitcast (i32 (...)* @__gxx_personality_v0 to i8*) !dbg !2670 {
entry:
  %this.addr = alloca %"struct.scp::core::awaitable_state.4"*, align 4
  %exn.slot = alloca i8*
  %ehselector.slot = alloca i32
  store %"struct.scp::core::awaitable_state.4"* %this, %"struct.scp::core::awaitable_state.4"** %this.addr, align 4
  call void @llvm.dbg.declare(metadata %"struct.scp::core::awaitable_state.4"** %this.addr, metadata !2674, metadata !DIExpression()), !dbg !2676
  %this1 = load %"struct.scp::core::awaitable_state.4"*, %"struct.scp::core::awaitable_state.4"** %this.addr, align 4
  %0 = bitcast %"struct.scp::core::awaitable_state.4"* %this1 to %"struct.scp::core::awaitable_state_base"*, !dbg !2677
  %_ready = getelementptr inbounds %"struct.scp::core::awaitable_state_base", %"struct.scp::core::awaitable_state_base"* %0, i32 0, i32 1, !dbg !2677
  %1 = load i8, i8* %_ready, align 4, !dbg !2677
  %tobool = trunc i8 %1 to i1, !dbg !2677
  br i1 %tobool, label %if.end, label %if.then, !dbg !2679

if.then:                                          ; preds = %entry
  %exception = call arm_aapcs_vfpcc i8* @__cxa_allocate_exception(i32 8) #3, !dbg !2680
  %2 = bitcast i8* %exception to %"struct.scp::core::future_exception"*, !dbg !2680
  %call = invoke arm_aapcs_vfpcc %"struct.scp::core::future_exception"* @_ZN3scp4core16future_exceptionC2ENS0_12future_errorE(%"struct.scp::core::future_exception"* %2, i32 0)
          to label %invoke.cont unwind label %lpad, !dbg !2681

invoke.cont:                                      ; preds = %if.then
  call arm_aapcs_vfpcc void @__cxa_throw(i8* %exception, i8* bitcast ({ i8*, i8*, i8* }* @_ZTIN3scp4core16future_exceptionE to i8*), i8* bitcast (%"struct.scp::core::future_exception"* (%"struct.scp::core::future_exception"*)* @_ZN3scp4core16future_exceptionD2Ev to i8*)) #14, !dbg !2680
  unreachable, !dbg !2680

lpad:                                             ; preds = %if.then
  %3 = landingpad { i8*, i32 }
          cleanup, !dbg !2682
  %4 = extractvalue { i8*, i32 } %3, 0, !dbg !2682
  store i8* %4, i8** %exn.slot, align 4, !dbg !2682
  %5 = extractvalue { i8*, i32 } %3, 1, !dbg !2682
  store i32 %5, i32* %ehselector.slot, align 4, !dbg !2682
  call arm_aapcs_vfpcc void @__cxa_free_exception(i8* %exception) #3, !dbg !2680
  br label %eh.resume, !dbg !2680

if.end:                                           ; preds = %entry
  %_value = getelementptr inbounds %"struct.scp::core::awaitable_state.4", %"struct.scp::core::awaitable_state.4"* %this1, i32 0, i32 1, !dbg !2683
  %6 = load i16, i16* %_value, align 4, !dbg !2683
  ret i16 %6, !dbg !2684

eh.resume:                                        ; preds = %lpad
  %exn = load i8*, i8** %exn.slot, align 4, !dbg !2680
  %sel = load i32, i32* %ehselector.slot, align 4, !dbg !2680
  %lpad.val = insertvalue { i8*, i32 } undef, i8* %exn, 0, !dbg !2680
  %lpad.val2 = insertvalue { i8*, i32 } %lpad.val, i32 %sel, 1, !dbg !2680
  resume { i8*, i32 } %lpad.val2, !dbg !2680
}

; Function Attrs: noinline nounwind optnone
define linkonce_odr dso_local arm_aapcs_vfpcc %"struct.scp::core::counted_ptr.2"* @_ZN3scp4core11counted_ptrINS0_15awaitable_stateItEEED2Ev(%"struct.scp::core::counted_ptr.2"* returned %this) unnamed_addr #5 comdat align 2 personality i8* bitcast (i32 (...)* @__gxx_personality_v0 to i8*) !dbg !2685 {
entry:
  %this.addr = alloca %"struct.scp::core::counted_ptr.2"*, align 4
  store %"struct.scp::core::counted_ptr.2"* %this, %"struct.scp::core::counted_ptr.2"** %this.addr, align 4
  call void @llvm.dbg.declare(metadata %"struct.scp::core::counted_ptr.2"** %this.addr, metadata !2686, metadata !DIExpression()), !dbg !2688
  %this1 = load %"struct.scp::core::counted_ptr.2"*, %"struct.scp::core::counted_ptr.2"** %this.addr, align 4
  invoke arm_aapcs_vfpcc void @_ZN3scp4core11counted_ptrINS0_15awaitable_stateItEEE7_unlockEv(%"struct.scp::core::counted_ptr.2"* %this1)
          to label %invoke.cont unwind label %terminate.lpad, !dbg !2689

invoke.cont:                                      ; preds = %entry
  ret %"struct.scp::core::counted_ptr.2"* %this1, !dbg !2691

terminate.lpad:                                   ; preds = %entry
  %0 = landingpad { i8*, i32 }
          catch i8* null, !dbg !2689
  %1 = extractvalue { i8*, i32 } %0, 0, !dbg !2689
  call arm_aapcs_vfpcc void @__clang_call_terminate(i8* %1) #13, !dbg !2689
  unreachable, !dbg !2689
}

; Function Attrs: noinline optnone
define linkonce_odr dso_local arm_aapcs_vfpcc void @_ZN3scp4core11counted_ptrINS0_15awaitable_stateItEEE7_unlockEv(%"struct.scp::core::counted_ptr.2"* %this) #0 comdat align 2 !dbg !2692 {
entry:
  %this.addr = alloca %"struct.scp::core::counted_ptr.2"*, align 4
  %t = alloca %"struct.scp::core::counted_awaitable_state.3"*, align 4
  store %"struct.scp::core::counted_ptr.2"* %this, %"struct.scp::core::counted_ptr.2"** %this.addr, align 4
  call void @llvm.dbg.declare(metadata %"struct.scp::core::counted_ptr.2"** %this.addr, metadata !2693, metadata !DIExpression()), !dbg !2694
  %this1 = load %"struct.scp::core::counted_ptr.2"*, %"struct.scp::core::counted_ptr.2"** %this.addr, align 4
  %_p = getelementptr inbounds %"struct.scp::core::counted_ptr.2", %"struct.scp::core::counted_ptr.2"* %this1, i32 0, i32 0, !dbg !2695
  %0 = load %"struct.scp::core::counted_awaitable_state.3"*, %"struct.scp::core::counted_awaitable_state.3"** %_p, align 4, !dbg !2695
  %cmp = icmp ne %"struct.scp::core::counted_awaitable_state.3"* %0, null, !dbg !2697
  br i1 %cmp, label %if.then, label %if.end, !dbg !2698

if.then:                                          ; preds = %entry
  call void @llvm.dbg.declare(metadata %"struct.scp::core::counted_awaitable_state.3"** %t, metadata !2699, metadata !DIExpression()), !dbg !2701
  %_p2 = getelementptr inbounds %"struct.scp::core::counted_ptr.2", %"struct.scp::core::counted_ptr.2"* %this1, i32 0, i32 0, !dbg !2702
  %1 = load %"struct.scp::core::counted_awaitable_state.3"*, %"struct.scp::core::counted_awaitable_state.3"** %_p2, align 4, !dbg !2702
  store %"struct.scp::core::counted_awaitable_state.3"* %1, %"struct.scp::core::counted_awaitable_state.3"** %t, align 4, !dbg !2701
  %_p3 = getelementptr inbounds %"struct.scp::core::counted_ptr.2", %"struct.scp::core::counted_ptr.2"* %this1, i32 0, i32 0, !dbg !2703
  store %"struct.scp::core::counted_awaitable_state.3"* null, %"struct.scp::core::counted_awaitable_state.3"** %_p3, align 4, !dbg !2704
  %2 = load %"struct.scp::core::counted_awaitable_state.3"*, %"struct.scp::core::counted_awaitable_state.3"** %t, align 4, !dbg !2705
  call arm_aapcs_vfpcc void @_ZN3scp4core23counted_awaitable_stateINS0_15awaitable_stateItEEE6unlockEv(%"struct.scp::core::counted_awaitable_state.3"* %2), !dbg !2706
  br label %if.end, !dbg !2707

if.end:                                           ; preds = %if.then, %entry
  ret void, !dbg !2708
}

; Function Attrs: noinline nounwind optnone
define linkonce_odr dso_local arm_aapcs_vfpcc void @_ZN3scp4core23counted_awaitable_stateINS0_15awaitable_stateItEEE6unlockEv(%"struct.scp::core::counted_awaitable_state.3"* %this) #5 comdat align 2 !dbg !2709 {
entry:
  %this.addr = alloca %"struct.scp::core::counted_awaitable_state.3"*, align 4
  store %"struct.scp::core::counted_awaitable_state.3"* %this, %"struct.scp::core::counted_awaitable_state.3"** %this.addr, align 4
  call void @llvm.dbg.declare(metadata %"struct.scp::core::counted_awaitable_state.3"** %this.addr, metadata !2710, metadata !DIExpression()), !dbg !2711
  %this1 = load %"struct.scp::core::counted_awaitable_state.3"*, %"struct.scp::core::counted_awaitable_state.3"** %this.addr, align 4
  %_count = getelementptr inbounds %"struct.scp::core::counted_awaitable_state.3", %"struct.scp::core::counted_awaitable_state.3"* %this1, i32 0, i32 1, !dbg !2712
  %0 = load volatile i32, i32* %_count, align 4, !dbg !2714
  %dec = add nsw i32 %0, -1, !dbg !2714
  store volatile i32 %dec, i32* %_count, align 4, !dbg !2714
  %cmp = icmp eq i32 %dec, 0, !dbg !2715
  br i1 %cmp, label %if.then, label %if.end, !dbg !2716

if.then:                                          ; preds = %entry
  %isnull = icmp eq %"struct.scp::core::counted_awaitable_state.3"* %this1, null, !dbg !2717
  br i1 %isnull, label %delete.end, label %delete.notnull, !dbg !2717

delete.notnull:                                   ; preds = %if.then
  %call = call arm_aapcs_vfpcc %"struct.scp::core::counted_awaitable_state.3"* @_ZN3scp4core23counted_awaitable_stateINS0_15awaitable_stateItEEED2Ev(%"struct.scp::core::counted_awaitable_state.3"* %this1) #3, !dbg !2717
  %1 = bitcast %"struct.scp::core::counted_awaitable_state.3"* %this1 to i8*, !dbg !2717
  call arm_aapcs_vfpcc void @_ZdlPv(i8* %1) #15, !dbg !2717
  br label %delete.end, !dbg !2717

delete.end:                                       ; preds = %delete.notnull, %if.then
  br label %if.end, !dbg !2717

if.end:                                           ; preds = %delete.end, %entry
  ret void, !dbg !2718
}

; Function Attrs: noinline nounwind optnone
define linkonce_odr dso_local arm_aapcs_vfpcc %"struct.scp::core::counted_awaitable_state.3"* @_ZN3scp4core23counted_awaitable_stateINS0_15awaitable_stateItEEED2Ev(%"struct.scp::core::counted_awaitable_state.3"* returned %this) unnamed_addr #5 comdat align 2 !dbg !2719 {
entry:
  %this.addr = alloca %"struct.scp::core::counted_awaitable_state.3"*, align 4
  store %"struct.scp::core::counted_awaitable_state.3"* %this, %"struct.scp::core::counted_awaitable_state.3"** %this.addr, align 4
  call void @llvm.dbg.declare(metadata %"struct.scp::core::counted_awaitable_state.3"** %this.addr, metadata !2720, metadata !DIExpression()), !dbg !2721
  %this1 = load %"struct.scp::core::counted_awaitable_state.3"*, %"struct.scp::core::counted_awaitable_state.3"** %this.addr, align 4
  ret %"struct.scp::core::counted_awaitable_state.3"* %this1, !dbg !2722
}

; Function Attrs: noinline nounwind optnone
define linkonce_odr dso_local arm_aapcs_vfpcc %"struct.scp::core::counted_awaitable_state.7"* @_ZNK3scp4core11counted_ptrINS0_15awaitable_stateIvEEEptEv(%"struct.scp::core::counted_ptr.6"* %this) #5 comdat align 2 !dbg !2723 {
entry:
  %this.addr = alloca %"struct.scp::core::counted_ptr.6"*, align 4
  store %"struct.scp::core::counted_ptr.6"* %this, %"struct.scp::core::counted_ptr.6"** %this.addr, align 4
  call void @llvm.dbg.declare(metadata %"struct.scp::core::counted_ptr.6"** %this.addr, metadata !2724, metadata !DIExpression()), !dbg !2726
  %this1 = load %"struct.scp::core::counted_ptr.6"*, %"struct.scp::core::counted_ptr.6"** %this.addr, align 4
  %_p = getelementptr inbounds %"struct.scp::core::counted_ptr.6", %"struct.scp::core::counted_ptr.6"* %this1, i32 0, i32 0, !dbg !2727
  %0 = load %"struct.scp::core::counted_awaitable_state.7"*, %"struct.scp::core::counted_awaitable_state.7"** %_p, align 4, !dbg !2727
  ret %"struct.scp::core::counted_awaitable_state.7"* %0, !dbg !2728
}

; Function Attrs: noinline optnone
define linkonce_odr dso_local arm_aapcs_vfpcc void @_ZNK3scp4core15awaitable_stateIvE9get_valueEv(%"struct.scp::core::awaitable_state.8"* %this) #0 comdat align 2 personality i8* bitcast (i32 (...)* @__gxx_personality_v0 to i8*) !dbg !2729 {
entry:
  %this.addr = alloca %"struct.scp::core::awaitable_state.8"*, align 4
  %exn.slot = alloca i8*
  %ehselector.slot = alloca i32
  store %"struct.scp::core::awaitable_state.8"* %this, %"struct.scp::core::awaitable_state.8"** %this.addr, align 4
  call void @llvm.dbg.declare(metadata %"struct.scp::core::awaitable_state.8"** %this.addr, metadata !2730, metadata !DIExpression()), !dbg !2732
  %this1 = load %"struct.scp::core::awaitable_state.8"*, %"struct.scp::core::awaitable_state.8"** %this.addr, align 4
  %0 = bitcast %"struct.scp::core::awaitable_state.8"* %this1 to %"struct.scp::core::awaitable_state_base"*, !dbg !2733
  %_ready = getelementptr inbounds %"struct.scp::core::awaitable_state_base", %"struct.scp::core::awaitable_state_base"* %0, i32 0, i32 1, !dbg !2733
  %1 = load i8, i8* %_ready, align 4, !dbg !2733
  %tobool = trunc i8 %1 to i1, !dbg !2733
  br i1 %tobool, label %if.end, label %if.then, !dbg !2735

if.then:                                          ; preds = %entry
  %exception = call arm_aapcs_vfpcc i8* @__cxa_allocate_exception(i32 8) #3, !dbg !2736
  %2 = bitcast i8* %exception to %"struct.scp::core::future_exception"*, !dbg !2736
  %call = invoke arm_aapcs_vfpcc %"struct.scp::core::future_exception"* @_ZN3scp4core16future_exceptionC2ENS0_12future_errorE(%"struct.scp::core::future_exception"* %2, i32 0)
          to label %invoke.cont unwind label %lpad, !dbg !2737

invoke.cont:                                      ; preds = %if.then
  call arm_aapcs_vfpcc void @__cxa_throw(i8* %exception, i8* bitcast ({ i8*, i8*, i8* }* @_ZTIN3scp4core16future_exceptionE to i8*), i8* bitcast (%"struct.scp::core::future_exception"* (%"struct.scp::core::future_exception"*)* @_ZN3scp4core16future_exceptionD2Ev to i8*)) #14, !dbg !2736
  unreachable, !dbg !2736

lpad:                                             ; preds = %if.then
  %3 = landingpad { i8*, i32 }
          cleanup, !dbg !2738
  %4 = extractvalue { i8*, i32 } %3, 0, !dbg !2738
  store i8* %4, i8** %exn.slot, align 4, !dbg !2738
  %5 = extractvalue { i8*, i32 } %3, 1, !dbg !2738
  store i32 %5, i32* %ehselector.slot, align 4, !dbg !2738
  call arm_aapcs_vfpcc void @__cxa_free_exception(i8* %exception) #3, !dbg !2736
  br label %eh.resume, !dbg !2736

if.end:                                           ; preds = %entry
  ret void, !dbg !2739

eh.resume:                                        ; preds = %lpad
  %exn = load i8*, i8** %exn.slot, align 4, !dbg !2736
  %sel = load i32, i32* %ehselector.slot, align 4, !dbg !2736
  %lpad.val = insertvalue { i8*, i32 } undef, i8* %exn, 0, !dbg !2736
  %lpad.val2 = insertvalue { i8*, i32 } %lpad.val, i32 %sel, 1, !dbg !2736
  resume { i8*, i32 } %lpad.val2, !dbg !2736
}

; Function Attrs: noinline nounwind optnone
define linkonce_odr dso_local arm_aapcs_vfpcc %"struct.scp::core::counted_ptr.6"* @_ZN3scp4core11counted_ptrINS0_15awaitable_stateIvEEED2Ev(%"struct.scp::core::counted_ptr.6"* returned %this) unnamed_addr #5 comdat align 2 personality i8* bitcast (i32 (...)* @__gxx_personality_v0 to i8*) !dbg !2740 {
entry:
  %this.addr = alloca %"struct.scp::core::counted_ptr.6"*, align 4
  store %"struct.scp::core::counted_ptr.6"* %this, %"struct.scp::core::counted_ptr.6"** %this.addr, align 4
  call void @llvm.dbg.declare(metadata %"struct.scp::core::counted_ptr.6"** %this.addr, metadata !2741, metadata !DIExpression()), !dbg !2743
  %this1 = load %"struct.scp::core::counted_ptr.6"*, %"struct.scp::core::counted_ptr.6"** %this.addr, align 4
  invoke arm_aapcs_vfpcc void @_ZN3scp4core11counted_ptrINS0_15awaitable_stateIvEEE7_unlockEv(%"struct.scp::core::counted_ptr.6"* %this1)
          to label %invoke.cont unwind label %terminate.lpad, !dbg !2744

invoke.cont:                                      ; preds = %entry
  ret %"struct.scp::core::counted_ptr.6"* %this1, !dbg !2746

terminate.lpad:                                   ; preds = %entry
  %0 = landingpad { i8*, i32 }
          catch i8* null, !dbg !2744
  %1 = extractvalue { i8*, i32 } %0, 0, !dbg !2744
  call arm_aapcs_vfpcc void @__clang_call_terminate(i8* %1) #13, !dbg !2744
  unreachable, !dbg !2744
}

; Function Attrs: noinline optnone
define linkonce_odr dso_local arm_aapcs_vfpcc void @_ZN3scp4core11counted_ptrINS0_15awaitable_stateIvEEE7_unlockEv(%"struct.scp::core::counted_ptr.6"* %this) #0 comdat align 2 !dbg !2747 {
entry:
  %this.addr = alloca %"struct.scp::core::counted_ptr.6"*, align 4
  %t = alloca %"struct.scp::core::counted_awaitable_state.7"*, align 4
  store %"struct.scp::core::counted_ptr.6"* %this, %"struct.scp::core::counted_ptr.6"** %this.addr, align 4
  call void @llvm.dbg.declare(metadata %"struct.scp::core::counted_ptr.6"** %this.addr, metadata !2748, metadata !DIExpression()), !dbg !2749
  %this1 = load %"struct.scp::core::counted_ptr.6"*, %"struct.scp::core::counted_ptr.6"** %this.addr, align 4
  %_p = getelementptr inbounds %"struct.scp::core::counted_ptr.6", %"struct.scp::core::counted_ptr.6"* %this1, i32 0, i32 0, !dbg !2750
  %0 = load %"struct.scp::core::counted_awaitable_state.7"*, %"struct.scp::core::counted_awaitable_state.7"** %_p, align 4, !dbg !2750
  %cmp = icmp ne %"struct.scp::core::counted_awaitable_state.7"* %0, null, !dbg !2752
  br i1 %cmp, label %if.then, label %if.end, !dbg !2753

if.then:                                          ; preds = %entry
  call void @llvm.dbg.declare(metadata %"struct.scp::core::counted_awaitable_state.7"** %t, metadata !2754, metadata !DIExpression()), !dbg !2756
  %_p2 = getelementptr inbounds %"struct.scp::core::counted_ptr.6", %"struct.scp::core::counted_ptr.6"* %this1, i32 0, i32 0, !dbg !2757
  %1 = load %"struct.scp::core::counted_awaitable_state.7"*, %"struct.scp::core::counted_awaitable_state.7"** %_p2, align 4, !dbg !2757
  store %"struct.scp::core::counted_awaitable_state.7"* %1, %"struct.scp::core::counted_awaitable_state.7"** %t, align 4, !dbg !2756
  %_p3 = getelementptr inbounds %"struct.scp::core::counted_ptr.6", %"struct.scp::core::counted_ptr.6"* %this1, i32 0, i32 0, !dbg !2758
  store %"struct.scp::core::counted_awaitable_state.7"* null, %"struct.scp::core::counted_awaitable_state.7"** %_p3, align 4, !dbg !2759
  %2 = load %"struct.scp::core::counted_awaitable_state.7"*, %"struct.scp::core::counted_awaitable_state.7"** %t, align 4, !dbg !2760
  call arm_aapcs_vfpcc void @_ZN3scp4core23counted_awaitable_stateINS0_15awaitable_stateIvEEE6unlockEv(%"struct.scp::core::counted_awaitable_state.7"* %2), !dbg !2761
  br label %if.end, !dbg !2762

if.end:                                           ; preds = %if.then, %entry
  ret void, !dbg !2763
}

; Function Attrs: noinline nounwind optnone
define linkonce_odr dso_local arm_aapcs_vfpcc void @_ZN3scp4core23counted_awaitable_stateINS0_15awaitable_stateIvEEE6unlockEv(%"struct.scp::core::counted_awaitable_state.7"* %this) #5 comdat align 2 !dbg !2764 {
entry:
  %this.addr = alloca %"struct.scp::core::counted_awaitable_state.7"*, align 4
  store %"struct.scp::core::counted_awaitable_state.7"* %this, %"struct.scp::core::counted_awaitable_state.7"** %this.addr, align 4
  call void @llvm.dbg.declare(metadata %"struct.scp::core::counted_awaitable_state.7"** %this.addr, metadata !2765, metadata !DIExpression()), !dbg !2766
  %this1 = load %"struct.scp::core::counted_awaitable_state.7"*, %"struct.scp::core::counted_awaitable_state.7"** %this.addr, align 4
  %_count = getelementptr inbounds %"struct.scp::core::counted_awaitable_state.7", %"struct.scp::core::counted_awaitable_state.7"* %this1, i32 0, i32 1, !dbg !2767
  %0 = load volatile i32, i32* %_count, align 4, !dbg !2769
  %dec = add nsw i32 %0, -1, !dbg !2769
  store volatile i32 %dec, i32* %_count, align 4, !dbg !2769
  %cmp = icmp eq i32 %dec, 0, !dbg !2770
  br i1 %cmp, label %if.then, label %if.end, !dbg !2771

if.then:                                          ; preds = %entry
  %isnull = icmp eq %"struct.scp::core::counted_awaitable_state.7"* %this1, null, !dbg !2772
  br i1 %isnull, label %delete.end, label %delete.notnull, !dbg !2772

delete.notnull:                                   ; preds = %if.then
  %call = call arm_aapcs_vfpcc %"struct.scp::core::counted_awaitable_state.7"* @_ZN3scp4core23counted_awaitable_stateINS0_15awaitable_stateIvEEED2Ev(%"struct.scp::core::counted_awaitable_state.7"* %this1) #3, !dbg !2772
  %1 = bitcast %"struct.scp::core::counted_awaitable_state.7"* %this1 to i8*, !dbg !2772
  call arm_aapcs_vfpcc void @_ZdlPv(i8* %1) #15, !dbg !2772
  br label %delete.end, !dbg !2772

delete.end:                                       ; preds = %delete.notnull, %if.then
  br label %if.end, !dbg !2772

if.end:                                           ; preds = %delete.end, %entry
  ret void, !dbg !2773
}

; Function Attrs: noinline nounwind optnone
define linkonce_odr dso_local arm_aapcs_vfpcc %"struct.scp::core::counted_awaitable_state.7"* @_ZN3scp4core23counted_awaitable_stateINS0_15awaitable_stateIvEEED2Ev(%"struct.scp::core::counted_awaitable_state.7"* returned %this) unnamed_addr #5 comdat align 2 !dbg !2774 {
entry:
  %this.addr = alloca %"struct.scp::core::counted_awaitable_state.7"*, align 4
  store %"struct.scp::core::counted_awaitable_state.7"* %this, %"struct.scp::core::counted_awaitable_state.7"** %this.addr, align 4
  call void @llvm.dbg.declare(metadata %"struct.scp::core::counted_awaitable_state.7"** %this.addr, metadata !2775, metadata !DIExpression()), !dbg !2776
  %this1 = load %"struct.scp::core::counted_awaitable_state.7"*, %"struct.scp::core::counted_awaitable_state.7"** %this.addr, align 4
  ret %"struct.scp::core::counted_awaitable_state.7"* %this1, !dbg !2777
}

; Function Attrs: nounwind
declare dso_local arm_aapcs_vfpcc void @free(i8*) #9

; Function Attrs: noinline nounwind optnone
define linkonce_odr dso_local arm_aapcs_vfpcc zeroext i1 @_ZNKSt12experimental13coroutines_v116coroutine_handleIvEcvbEv(%"struct.std::experimental::coroutines_v1::coroutine_handle.0"* %this) #5 comdat align 2 !dbg !2778 {
entry:
  %this.addr = alloca %"struct.std::experimental::coroutines_v1::coroutine_handle.0"*, align 4
  store %"struct.std::experimental::coroutines_v1::coroutine_handle.0"* %this, %"struct.std::experimental::coroutines_v1::coroutine_handle.0"** %this.addr, align 4
  call void @llvm.dbg.declare(metadata %"struct.std::experimental::coroutines_v1::coroutine_handle.0"** %this.addr, metadata !2779, metadata !DIExpression()), !dbg !2780
  %this1 = load %"struct.std::experimental::coroutines_v1::coroutine_handle.0"*, %"struct.std::experimental::coroutines_v1::coroutine_handle.0"** %this.addr, align 4
  %ptr = getelementptr inbounds %"struct.std::experimental::coroutines_v1::coroutine_handle.0", %"struct.std::experimental::coroutines_v1::coroutine_handle.0"* %this1, i32 0, i32 0, !dbg !2781
  %0 = load i8*, i8** %ptr, align 4, !dbg !2781
  %tobool = icmp ne i8* %0, null, !dbg !2781
  ret i1 %tobool, !dbg !2782
}

; Function Attrs: noinline optnone
define linkonce_odr dso_local arm_aapcs_vfpcc void @_ZNKSt12experimental13coroutines_v116coroutine_handleIvE7destroyEv(%"struct.std::experimental::coroutines_v1::coroutine_handle.0"* %this) #0 comdat align 2 !dbg !2783 {
entry:
  %this.addr = alloca %"struct.std::experimental::coroutines_v1::coroutine_handle.0"*, align 4
  store %"struct.std::experimental::coroutines_v1::coroutine_handle.0"* %this, %"struct.std::experimental::coroutines_v1::coroutine_handle.0"** %this.addr, align 4
  call void @llvm.dbg.declare(metadata %"struct.std::experimental::coroutines_v1::coroutine_handle.0"** %this.addr, metadata !2784, metadata !DIExpression()), !dbg !2785
  %this1 = load %"struct.std::experimental::coroutines_v1::coroutine_handle.0"*, %"struct.std::experimental::coroutines_v1::coroutine_handle.0"** %this.addr, align 4
  %ptr = getelementptr inbounds %"struct.std::experimental::coroutines_v1::coroutine_handle.0", %"struct.std::experimental::coroutines_v1::coroutine_handle.0"* %this1, i32 0, i32 0, !dbg !2786
  %0 = load i8*, i8** %ptr, align 4, !dbg !2786
  %1 = bitcast i8* %0 to { i8*, i8* }*
  %2 = getelementptr inbounds { i8*, i8* }, { i8*, i8* }* %1, i32 0, i32 1
  %3 = load i8*, i8** %2
  %4 = bitcast i8* %3 to void (i8*)*
  call fastcc void %4(i8* %0), !dbg !2787
  ret void, !dbg !2788
}

declare void @llvm.coro.destroy(i8*)

; Function Attrs: noinline optnone
define linkonce_odr dso_local arm_aapcs_vfpcc void @_ZN3scp4core6task_t16blockRunningTaskEv() #0 comdat align 2 !dbg !2789 {
entry:
  %call = call arm_aapcs_vfpcc dereferenceable(56) %"class.scp::core::task_t"* @_ZN3scp4core6task_t14getRunningTaskEv(), !dbg !2790
  call arm_aapcs_vfpcc void @_ZN3scp4core6task_t5blockEv(%"class.scp::core::task_t"* %call), !dbg !2791
  ret void, !dbg !2792
}

; Function Attrs: noinline optnone
define linkonce_odr dso_local arm_aapcs_vfpcc void @_ZN3scp4core20awaitable_state_base22set_coroutine_callbackENSt12experimental13coroutines_v116coroutine_handleIvEE(%"struct.scp::core::awaitable_state_base"* %this, [1 x i32] %cb.coerce) #0 comdat align 2 !dbg !2793 {
entry:
  %cb = alloca %"struct.std::experimental::coroutines_v1::coroutine_handle.0", align 4
  %this.addr = alloca %"struct.scp::core::awaitable_state_base"*, align 4
  %coerce.dive = getelementptr inbounds %"struct.std::experimental::coroutines_v1::coroutine_handle.0", %"struct.std::experimental::coroutines_v1::coroutine_handle.0"* %cb, i32 0, i32 0
  %0 = bitcast i8** %coerce.dive to [1 x i32]*
  store [1 x i32] %cb.coerce, [1 x i32]* %0, align 4
  store %"struct.scp::core::awaitable_state_base"* %this, %"struct.scp::core::awaitable_state_base"** %this.addr, align 4
  call void @llvm.dbg.declare(metadata %"struct.scp::core::awaitable_state_base"** %this.addr, metadata !2794, metadata !DIExpression()), !dbg !2796
  call void @llvm.dbg.declare(metadata %"struct.std::experimental::coroutines_v1::coroutine_handle.0"* %cb, metadata !2797, metadata !DIExpression()), !dbg !2798
  %this1 = load %"struct.scp::core::awaitable_state_base"*, %"struct.scp::core::awaitable_state_base"** %this.addr, align 4
  %call = call arm_aapcs_vfpcc zeroext i1 @_ZNKSt12experimental13coroutines_v116coroutine_handleIvEcvbEv(%"struct.std::experimental::coroutines_v1::coroutine_handle.0"* %cb), !dbg !2799
  br i1 %call, label %lor.lhs.false, label %cond.true, !dbg !2799

lor.lhs.false:                                    ; preds = %entry
  %_coro = getelementptr inbounds %"struct.scp::core::awaitable_state_base", %"struct.scp::core::awaitable_state_base"* %this1, i32 0, i32 0, !dbg !2799
  %call2 = call arm_aapcs_vfpcc zeroext i1 @_ZNKSt12experimental13coroutines_v116coroutine_handleIvEcvbEv(%"struct.std::experimental::coroutines_v1::coroutine_handle.0"* %_coro), !dbg !2799
  br i1 %call2, label %cond.false, label %cond.true, !dbg !2799

cond.true:                                        ; preds = %lor.lhs.false, %entry
  br label %cond.end, !dbg !2799

cond.false:                                       ; preds = %lor.lhs.false
  call arm_aapcs_vfpcc void @__assert_func(i8* getelementptr inbounds ([69 x i8], [69 x i8]* @.str.3, i32 0, i32 0), i32 85, i8* getelementptr inbounds ([100 x i8], [100 x i8]* @__PRETTY_FUNCTION__._ZN3scp4core20awaitable_state_base22set_coroutine_callbackENSt12experimental13coroutines_v116coroutine_handleIvEE, i32 0, i32 0), i8* getelementptr inbounds ([63 x i8], [63 x i8]* @.str.4, i32 0, i32 0)) #14, !dbg !2799
  unreachable, !dbg !2799
                                                  ; No predecessors!
  br label %cond.end, !dbg !2799

cond.end:                                         ; preds = %1, %cond.true
  %_coro3 = getelementptr inbounds %"struct.scp::core::awaitable_state_base", %"struct.scp::core::awaitable_state_base"* %this1, i32 0, i32 0, !dbg !2800
  %2 = bitcast %"struct.std::experimental::coroutines_v1::coroutine_handle.0"* %_coro3 to i8*, !dbg !2801
  %3 = bitcast %"struct.std::experimental::coroutines_v1::coroutine_handle.0"* %cb to i8*, !dbg !2801
  call void @llvm.memcpy.p0i8.p0i8.i32(i8* align 4 %2, i8* align 4 %3, i32 4, i1 false), !dbg !2801
  ret void, !dbg !2802
}

; Function Attrs: noinline optnone
define linkonce_odr dso_local arm_aapcs_vfpcc dereferenceable(56) %"class.scp::core::task_t"* @_ZN3scp4core6task_t14getRunningTaskEv() #0 comdat align 2 !dbg !2803 {
entry:
  %call = call arm_aapcs_vfpcc dereferenceable(40) %"class.scp::core::scheduler_t"* @_ZN3scp4core11scheduler_t11getInstanceEv(), !dbg !2804
  %call1 = call arm_aapcs_vfpcc dereferenceable(56) %"class.scp::core::task_t"* @_ZN3scp4core11scheduler_t14getRunningTaskEv(%"class.scp::core::scheduler_t"* %call), !dbg !2805
  ret %"class.scp::core::task_t"* %call1, !dbg !2806
}

; Function Attrs: noinline optnone
define linkonce_odr dso_local arm_aapcs_vfpcc void @_ZN3scp4core6task_t5blockEv(%"class.scp::core::task_t"* %this) #0 comdat align 2 !dbg !2807 {
entry:
  %this.addr = alloca %"class.scp::core::task_t"*, align 4
  store %"class.scp::core::task_t"* %this, %"class.scp::core::task_t"** %this.addr, align 4
  call void @llvm.dbg.declare(metadata %"class.scp::core::task_t"** %this.addr, metadata !2808, metadata !DIExpression()), !dbg !2809
  %this1 = load %"class.scp::core::task_t"*, %"class.scp::core::task_t"** %this.addr, align 4
  call arm_aapcs_vfpcc void @_ZN3scp4core6task_t8setStateENS1_12task_state_tE(%"class.scp::core::task_t"* %this1, i32 2), !dbg !2810
  ret void, !dbg !2811
}

; Function Attrs: noinline optnone
define linkonce_odr dso_local arm_aapcs_vfpcc dereferenceable(40) %"class.scp::core::scheduler_t"* @_ZN3scp4core11scheduler_t11getInstanceEv() #0 comdat align 2 !dbg !2 {
entry:
  %0 = load i8, i8* bitcast (i32* @_ZGVZN3scp4core11scheduler_t11getInstanceEvE11theInstance to i8*), align 4, !dbg !2812
  %1 = and i8 %0, 1, !dbg !2812
  %guard.uninitialized = icmp eq i8 %1, 0, !dbg !2812
  br i1 %guard.uninitialized, label %init.check, label %init.end, !dbg !2812, !prof !2813

init.check:                                       ; preds = %entry
  %call = call arm_aapcs_vfpcc %"class.scp::core::scheduler_t"* @_ZN3scp4core11scheduler_tC2Ev(%"class.scp::core::scheduler_t"* @_ZZN3scp4core11scheduler_t11getInstanceEvE11theInstance), !dbg !2814
  store i32 1, i32* @_ZGVZN3scp4core11scheduler_t11getInstanceEvE11theInstance, align 4, !dbg !2812
  br label %init.end, !dbg !2812

init.end:                                         ; preds = %init.check, %entry
  ret %"class.scp::core::scheduler_t"* @_ZZN3scp4core11scheduler_t11getInstanceEvE11theInstance, !dbg !2815
}

; Function Attrs: noinline nounwind optnone
define linkonce_odr dso_local arm_aapcs_vfpcc dereferenceable(56) %"class.scp::core::task_t"* @_ZN3scp4core11scheduler_t14getRunningTaskEv(%"class.scp::core::scheduler_t"* %this) #5 comdat align 2 !dbg !2816 {
entry:
  %this.addr = alloca %"class.scp::core::scheduler_t"*, align 4
  store %"class.scp::core::scheduler_t"* %this, %"class.scp::core::scheduler_t"** %this.addr, align 4
  call void @llvm.dbg.declare(metadata %"class.scp::core::scheduler_t"** %this.addr, metadata !2817, metadata !DIExpression()), !dbg !2819
  %this1 = load %"class.scp::core::scheduler_t"*, %"class.scp::core::scheduler_t"** %this.addr, align 4
  %tasks_ = getelementptr inbounds %"class.scp::core::scheduler_t", %"class.scp::core::scheduler_t"* %this1, i32 0, i32 0, !dbg !2820
  %runningTaskIndex_ = getelementptr inbounds %"class.scp::core::scheduler_t", %"class.scp::core::scheduler_t"* %this1, i32 0, i32 2, !dbg !2821
  %0 = load i32, i32* %runningTaskIndex_, align 4, !dbg !2821
  %call = call arm_aapcs_vfpcc dereferenceable(4) %"class.scp::core::task_t"** @_ZNSt5arrayIPN3scp4core6task_tELj8EEixEj(%"struct.std::array"* %tasks_, i32 %0) #3, !dbg !2820
  %1 = load %"class.scp::core::task_t"*, %"class.scp::core::task_t"** %call, align 4, !dbg !2820
  ret %"class.scp::core::task_t"* %1, !dbg !2822
}

; Function Attrs: noinline nounwind optnone
define linkonce_odr dso_local arm_aapcs_vfpcc %"class.scp::core::scheduler_t"* @_ZN3scp4core11scheduler_tC2Ev(%"class.scp::core::scheduler_t"* returned %this) unnamed_addr #5 comdat align 2 !dbg !2823 {
entry:
  %this.addr = alloca %"class.scp::core::scheduler_t"*, align 4
  store %"class.scp::core::scheduler_t"* %this, %"class.scp::core::scheduler_t"** %this.addr, align 4
  call void @llvm.dbg.declare(metadata %"class.scp::core::scheduler_t"** %this.addr, metadata !2824, metadata !DIExpression()), !dbg !2825
  %this1 = load %"class.scp::core::scheduler_t"*, %"class.scp::core::scheduler_t"** %this.addr, align 4
  %tasks_ = getelementptr inbounds %"class.scp::core::scheduler_t", %"class.scp::core::scheduler_t"* %this1, i32 0, i32 0, !dbg !2826
  %tasksRegistered_ = getelementptr inbounds %"class.scp::core::scheduler_t", %"class.scp::core::scheduler_t"* %this1, i32 0, i32 1, !dbg !2827
  store i32 0, i32* %tasksRegistered_, align 4, !dbg !2827
  %runningTaskIndex_ = getelementptr inbounds %"class.scp::core::scheduler_t", %"class.scp::core::scheduler_t"* %this1, i32 0, i32 2, !dbg !2828
  store i32 -1, i32* %runningTaskIndex_, align 4, !dbg !2828
  ret %"class.scp::core::scheduler_t"* %this1, !dbg !2829
}

; Function Attrs: noinline nounwind optnone
define linkonce_odr dso_local arm_aapcs_vfpcc dereferenceable(4) %"class.scp::core::task_t"** @_ZNSt5arrayIPN3scp4core6task_tELj8EEixEj(%"struct.std::array"* %this, i32 %__n) #5 comdat align 2 !dbg !2830 {
entry:
  %this.addr = alloca %"struct.std::array"*, align 4
  %__n.addr = alloca i32, align 4
  store %"struct.std::array"* %this, %"struct.std::array"** %this.addr, align 4
  call void @llvm.dbg.declare(metadata %"struct.std::array"** %this.addr, metadata !2831, metadata !DIExpression()), !dbg !2833
  store i32 %__n, i32* %__n.addr, align 4
  call void @llvm.dbg.declare(metadata i32* %__n.addr, metadata !2834, metadata !DIExpression()), !dbg !2835
  %this1 = load %"struct.std::array"*, %"struct.std::array"** %this.addr, align 4
  %_M_elems = getelementptr inbounds %"struct.std::array", %"struct.std::array"* %this1, i32 0, i32 0, !dbg !2836
  %0 = load i32, i32* %__n.addr, align 4, !dbg !2837
  %call = call arm_aapcs_vfpcc dereferenceable(4) %"class.scp::core::task_t"** @_ZNSt14__array_traitsIPN3scp4core6task_tELj8EE6_S_refERA8_KS3_j([8 x %"class.scp::core::task_t"*]* dereferenceable(32) %_M_elems, i32 %0) #3, !dbg !2838
  ret %"class.scp::core::task_t"** %call, !dbg !2839
}

; Function Attrs: noinline nounwind optnone
define linkonce_odr dso_local arm_aapcs_vfpcc dereferenceable(4) %"class.scp::core::task_t"** @_ZNSt14__array_traitsIPN3scp4core6task_tELj8EE6_S_refERA8_KS3_j([8 x %"class.scp::core::task_t"*]* dereferenceable(32) %__t, i32 %__n) #5 comdat align 2 !dbg !2840 {
entry:
  %__t.addr = alloca [8 x %"class.scp::core::task_t"*]*, align 4
  %__n.addr = alloca i32, align 4
  store [8 x %"class.scp::core::task_t"*]* %__t, [8 x %"class.scp::core::task_t"*]** %__t.addr, align 4
  call void @llvm.dbg.declare(metadata [8 x %"class.scp::core::task_t"*]** %__t.addr, metadata !2841, metadata !DIExpression()), !dbg !2842
  store i32 %__n, i32* %__n.addr, align 4
  call void @llvm.dbg.declare(metadata i32* %__n.addr, metadata !2843, metadata !DIExpression()), !dbg !2844
  %0 = load [8 x %"class.scp::core::task_t"*]*, [8 x %"class.scp::core::task_t"*]** %__t.addr, align 4, !dbg !2845
  %1 = load i32, i32* %__n.addr, align 4, !dbg !2846
  %arrayidx = getelementptr inbounds [8 x %"class.scp::core::task_t"*], [8 x %"class.scp::core::task_t"*]* %0, i32 0, i32 %1, !dbg !2845
  ret %"class.scp::core::task_t"** %arrayidx, !dbg !2847
}

; Function Attrs: noinline nounwind optnone
define linkonce_odr dso_local arm_aapcs_vfpcc void @_ZN3scp4core6task_t8setStateENS1_12task_state_tE(%"class.scp::core::task_t"* %this, i32 %state) #5 comdat align 2 !dbg !2848 {
entry:
  %this.addr = alloca %"class.scp::core::task_t"*, align 4
  %state.addr = alloca i32, align 4
  store %"class.scp::core::task_t"* %this, %"class.scp::core::task_t"** %this.addr, align 4
  call void @llvm.dbg.declare(metadata %"class.scp::core::task_t"** %this.addr, metadata !2849, metadata !DIExpression()), !dbg !2850
  store i32 %state, i32* %state.addr, align 4
  call void @llvm.dbg.declare(metadata i32* %state.addr, metadata !2851, metadata !DIExpression()), !dbg !2852
  %this1 = load %"class.scp::core::task_t"*, %"class.scp::core::task_t"** %this.addr, align 4
  %0 = load i32, i32* %state.addr, align 4, !dbg !2853
  %state_ = getelementptr inbounds %"class.scp::core::task_t", %"class.scp::core::task_t"* %this1, i32 0, i32 1, !dbg !2854
  store i32 %0, i32* %state_, align 4, !dbg !2855
  ret void, !dbg !2856
}

; Function Attrs: noreturn
declare dso_local arm_aapcs_vfpcc void @__assert_func(i8*, i32, i8*, i8*) #11

; Function Attrs: argmemonly nounwind readonly
declare i8* @llvm.coro.subfn.addr(i8* nocapture readonly, i8) #2

; Function Attrs: alwaysinline
define private void @coro.devirt.trigger(i8*) #12 {
entry:
  ret void
}

; Function Attrs: nounwind readnone speculatable
declare void @llvm.dbg.value(metadata, metadata, metadata) #1

; Function Attrs: noinline optnone
define internal fastcc void @_Z9adcTaskFnh.resume(%_Z9adcTaskFnh.Frame* %FramePtr) #0 personality i8* bitcast (i32 (...)* @__gxx_personality_v0 to i8*) !dbg !2857 {
entry.resume:
  %vFrame = bitcast %_Z9adcTaskFnh.Frame* %FramePtr to i8*, !dbg !2858
  %__promise = getelementptr inbounds %_Z9adcTaskFnh.Frame, %_Z9adcTaskFnh.Frame* %FramePtr, i32 0, i32 2, !dbg !2858
  %exn.slot = getelementptr inbounds %_Z9adcTaskFnh.Frame, %_Z9adcTaskFnh.Frame* %FramePtr, i32 0, i32 4, !dbg !2858
  %ehselector.slot = getelementptr inbounds %_Z9adcTaskFnh.Frame, %_Z9adcTaskFnh.Frame* %FramePtr, i32 0, i32 5, !dbg !2858
  %ref.tmp = getelementptr inbounds %_Z9adcTaskFnh.Frame, %_Z9adcTaskFnh.Frame* %FramePtr, i32 0, i32 6, !dbg !2858
  %agg.tmp = getelementptr inbounds %_Z9adcTaskFnh.Frame, %_Z9adcTaskFnh.Frame* %FramePtr, i32 0, i32 7, !dbg !2858
  %ref.tmp6 = getelementptr inbounds %_Z9adcTaskFnh.Frame, %_Z9adcTaskFnh.Frame* %FramePtr, i32 0, i32 8, !dbg !2858
  %initresume.eh = getelementptr inbounds %_Z9adcTaskFnh.Frame, %_Z9adcTaskFnh.Frame* %FramePtr, i32 0, i32 9, !dbg !2858
  %ref.tmp17 = getelementptr inbounds %_Z9adcTaskFnh.Frame, %_Z9adcTaskFnh.Frame* %FramePtr, i32 0, i32 10, !dbg !2858
  %agg.tmp21 = getelementptr inbounds %_Z9adcTaskFnh.Frame, %_Z9adcTaskFnh.Frame* %FramePtr, i32 0, i32 11, !dbg !2858
  %ref.tmp22 = getelementptr inbounds %_Z9adcTaskFnh.Frame, %_Z9adcTaskFnh.Frame* %FramePtr, i32 0, i32 12, !dbg !2858
  %okx = getelementptr inbounds %_Z9adcTaskFnh.Frame, %_Z9adcTaskFnh.Frame* %FramePtr, i32 0, i32 13, !dbg !2858
  %ref.tmp30 = getelementptr inbounds %_Z9adcTaskFnh.Frame, %_Z9adcTaskFnh.Frame* %FramePtr, i32 0, i32 14, !dbg !2858
  %agg.tmp35 = getelementptr inbounds %_Z9adcTaskFnh.Frame, %_Z9adcTaskFnh.Frame* %FramePtr, i32 0, i32 15, !dbg !2858
  %ref.tmp36 = getelementptr inbounds %_Z9adcTaskFnh.Frame, %_Z9adcTaskFnh.Frame* %FramePtr, i32 0, i32 16, !dbg !2858
  %tmp.exprcleanup = getelementptr inbounds %_Z9adcTaskFnh.Frame, %_Z9adcTaskFnh.Frame* %FramePtr, i32 0, i32 17, !dbg !2858
  %oky = getelementptr inbounds %_Z9adcTaskFnh.Frame, %_Z9adcTaskFnh.Frame* %FramePtr, i32 0, i32 18, !dbg !2858
  %ref.tmp47 = getelementptr inbounds %_Z9adcTaskFnh.Frame, %_Z9adcTaskFnh.Frame* %FramePtr, i32 0, i32 19, !dbg !2858
  %agg.tmp52 = getelementptr inbounds %_Z9adcTaskFnh.Frame, %_Z9adcTaskFnh.Frame* %FramePtr, i32 0, i32 20, !dbg !2858
  %ref.tmp53 = getelementptr inbounds %_Z9adcTaskFnh.Frame, %_Z9adcTaskFnh.Frame* %FramePtr, i32 0, i32 21, !dbg !2858
  %tmp.exprcleanup67 = getelementptr inbounds %_Z9adcTaskFnh.Frame, %_Z9adcTaskFnh.Frame* %FramePtr, i32 0, i32 22, !dbg !2858
  %x = getelementptr inbounds %_Z9adcTaskFnh.Frame, %_Z9adcTaskFnh.Frame* %FramePtr, i32 0, i32 23, !dbg !2858
  %ref.tmp68 = getelementptr inbounds %_Z9adcTaskFnh.Frame, %_Z9adcTaskFnh.Frame* %FramePtr, i32 0, i32 24, !dbg !2858
  %agg.tmp73 = getelementptr inbounds %_Z9adcTaskFnh.Frame, %_Z9adcTaskFnh.Frame* %FramePtr, i32 0, i32 25, !dbg !2858
  %ref.tmp74 = getelementptr inbounds %_Z9adcTaskFnh.Frame, %_Z9adcTaskFnh.Frame* %FramePtr, i32 0, i32 26, !dbg !2858
  %tmp.exprcleanup88 = getelementptr inbounds %_Z9adcTaskFnh.Frame, %_Z9adcTaskFnh.Frame* %FramePtr, i32 0, i32 27, !dbg !2858
  %y = getelementptr inbounds %_Z9adcTaskFnh.Frame, %_Z9adcTaskFnh.Frame* %FramePtr, i32 0, i32 28, !dbg !2858
  %ref.tmp89 = getelementptr inbounds %_Z9adcTaskFnh.Frame, %_Z9adcTaskFnh.Frame* %FramePtr, i32 0, i32 29, !dbg !2858
  %agg.tmp94 = getelementptr inbounds %_Z9adcTaskFnh.Frame, %_Z9adcTaskFnh.Frame* %FramePtr, i32 0, i32 30, !dbg !2858
  %ref.tmp95 = getelementptr inbounds %_Z9adcTaskFnh.Frame, %_Z9adcTaskFnh.Frame* %FramePtr, i32 0, i32 31, !dbg !2858
  %tmp.exprcleanup109 = getelementptr inbounds %_Z9adcTaskFnh.Frame, %_Z9adcTaskFnh.Frame* %FramePtr, i32 0, i32 32, !dbg !2858
  %ref.tmp117 = getelementptr inbounds %_Z9adcTaskFnh.Frame, %_Z9adcTaskFnh.Frame* %FramePtr, i32 0, i32 33, !dbg !2858
  %agg.tmp122 = getelementptr inbounds %_Z9adcTaskFnh.Frame, %_Z9adcTaskFnh.Frame* %FramePtr, i32 0, i32 34, !dbg !2858
  %ref.tmp123 = getelementptr inbounds %_Z9adcTaskFnh.Frame, %_Z9adcTaskFnh.Frame* %FramePtr, i32 0, i32 35, !dbg !2858
  %ref.tmp143 = getelementptr inbounds %_Z9adcTaskFnh.Frame, %_Z9adcTaskFnh.Frame* %FramePtr, i32 0, i32 36, !dbg !2858
  %agg.tmp148 = getelementptr inbounds %_Z9adcTaskFnh.Frame, %_Z9adcTaskFnh.Frame* %FramePtr, i32 0, i32 37, !dbg !2858
  %ref.tmp149 = getelementptr inbounds %_Z9adcTaskFnh.Frame, %_Z9adcTaskFnh.Frame* %FramePtr, i32 0, i32 38, !dbg !2858
  br label %resume.entry

resume.0:                                         ; preds = %resume.entry
  br label %resume.0.landing, !dbg !2859

resume.0.landing:                                 ; preds = %resume.0
  br label %AfterCoroSuspend, !dbg !2859

AfterCoroSuspend:                                 ; preds = %resume.0.landing
  switch i8 0, label %coro.ret [
    i8 0, label %init.ready
    i8 1, label %init.cleanup
  ], !dbg !2859

init.cleanup:                                     ; preds = %AfterCoroSuspend
  br label %cleanup158.from.init.cleanup, !dbg !2859

cleanup158.from.init.cleanup:                     ; preds = %init.cleanup
  %.cleanup158210 = phi i32 [ 2, %init.cleanup ]
  br label %cleanup158, !dbg !2859

lpad2:                                            ; preds = %invoke.cont139
  %0 = landingpad { i8*, i32 }
          cleanup, !dbg !2860
  %ehselector.slot.reload.addr230 = getelementptr inbounds %_Z9adcTaskFnh.Frame, %_Z9adcTaskFnh.Frame* %FramePtr, i32 0, i32 5, !dbg !2860
  %exn.slot.reload.addr221 = getelementptr inbounds %_Z9adcTaskFnh.Frame, %_Z9adcTaskFnh.Frame* %FramePtr, i32 0, i32 4, !dbg !2860
  %1 = extractvalue { i8*, i32 } %0, 0, !dbg !2860
  store i8* %1, i8** %exn.slot.reload.addr221, align 4, !dbg !2860
  %2 = extractvalue { i8*, i32 } %0, 1, !dbg !2860
  store i32 %2, i32* %ehselector.slot.reload.addr230, align 4, !dbg !2860
  br label %ehcleanup, !dbg !2860

init.ready:                                       ; preds = %AfterCoroSuspend
  %initresume.eh.reload.addr233 = getelementptr inbounds %_Z9adcTaskFnh.Frame, %_Z9adcTaskFnh.Frame* %FramePtr, i32 0, i32 9, !dbg !2859
  %ref.tmp.reload.addr = getelementptr inbounds %_Z9adcTaskFnh.Frame, %_Z9adcTaskFnh.Frame* %FramePtr, i32 0, i32 6, !dbg !2859
  store i1 true, i1* %initresume.eh.reload.addr233, align 1, !dbg !2859
  call arm_aapcs_vfpcc void @_ZNSt12experimental13coroutines_v113suspend_never12await_resumeEv(%"struct.std::experimental::coroutines_v1::suspend_never"* %ref.tmp.reload.addr), !dbg !2859
  br label %invoke.cont12

invoke.cont12:                                    ; preds = %init.ready
  %initresume.eh.reload.addr232 = getelementptr inbounds %_Z9adcTaskFnh.Frame, %_Z9adcTaskFnh.Frame* %FramePtr, i32 0, i32 9, !dbg !2859
  store i1 false, i1* %initresume.eh.reload.addr232, align 1, !dbg !2859
  br label %try.cont, !dbg !2859

try.cont:                                         ; preds = %invoke.cont12
  %initresume.eh.reload.addr = getelementptr inbounds %_Z9adcTaskFnh.Frame, %_Z9adcTaskFnh.Frame* %FramePtr, i32 0, i32 9, !dbg !2859
  %coro.resumed.eh = load i1, i1* %initresume.eh.reload.addr, align 1, !dbg !2859
  br i1 %coro.resumed.eh, label %coro.resumed.cont, label %coro.resumed.body, !dbg !2859

coro.resumed.body:                                ; preds = %try.cont
  %ref.tmp17.reload.addr235 = getelementptr inbounds %_Z9adcTaskFnh.Frame, %_Z9adcTaskFnh.Frame* %FramePtr, i32 0, i32 10, !dbg !2861
  %call20 = call arm_aapcs_vfpcc zeroext i1 @_ZNSt12experimental13coroutines_v114suspend_always11await_readyEv(%"struct.std::experimental::coroutines_v1::suspend_always"* %ref.tmp17.reload.addr235), !dbg !2861
  br label %invoke.cont19

invoke.cont19:                                    ; preds = %coro.resumed.body
  br i1 %call20, label %await.ready, label %CoroSave173, !dbg !2863

CoroSave173:                                      ; preds = %invoke.cont19
  %index.addr270 = getelementptr inbounds %_Z9adcTaskFnh.Frame, %_Z9adcTaskFnh.Frame* %FramePtr, i32 0, i32 3, !dbg !2863
  store i3 1, i3* %index.addr270, !dbg !2863
  br label %AfterCoroSave174, !dbg !2861

AfterCoroSave174:                                 ; preds = %CoroSave173
  %ref.tmp22.reload.addr = getelementptr inbounds %_Z9adcTaskFnh.Frame, %_Z9adcTaskFnh.Frame* %FramePtr, i32 0, i32 12, !dbg !2861
  %agg.tmp21.reload.addr = getelementptr inbounds %_Z9adcTaskFnh.Frame, %_Z9adcTaskFnh.Frame* %FramePtr, i32 0, i32 11, !dbg !2861
  %ref.tmp17.reload.addr234 = getelementptr inbounds %_Z9adcTaskFnh.Frame, %_Z9adcTaskFnh.Frame* %FramePtr, i32 0, i32 10, !dbg !2861
  %call23 = call arm_aapcs_vfpcc i32 @_ZNSt12experimental13coroutines_v116coroutine_handleIN3scp4core9resumable12promise_typeEE12from_addressEPv(i8* %vFrame) #3, !dbg !2861
  %coerce.dive24 = getelementptr inbounds %"struct.std::experimental::coroutines_v1::coroutine_handle", %"struct.std::experimental::coroutines_v1::coroutine_handle"* %ref.tmp22.reload.addr, i32 0, i32 0, !dbg !2861
  %coerce.dive25 = getelementptr inbounds %"struct.std::experimental::coroutines_v1::coroutine_handle.0", %"struct.std::experimental::coroutines_v1::coroutine_handle.0"* %coerce.dive24, i32 0, i32 0, !dbg !2861
  %coerce.val.ip26 = inttoptr i32 %call23 to i8*, !dbg !2861
  store i8* %coerce.val.ip26, i8** %coerce.dive25, align 4, !dbg !2861
  %3 = bitcast %"struct.std::experimental::coroutines_v1::coroutine_handle"* %ref.tmp22.reload.addr to %"struct.std::experimental::coroutines_v1::coroutine_handle.0"*, !dbg !2861
  %4 = bitcast %"struct.std::experimental::coroutines_v1::coroutine_handle.0"* %agg.tmp21.reload.addr to i8*, !dbg !2861
  %5 = bitcast %"struct.std::experimental::coroutines_v1::coroutine_handle.0"* %3 to i8*, !dbg !2861
  call void @llvm.memcpy.p0i8.p0i8.i32(i8* align 4 %4, i8* align 4 %5, i32 4, i1 false), !dbg !2861
  %coerce.dive27 = getelementptr inbounds %"struct.std::experimental::coroutines_v1::coroutine_handle.0", %"struct.std::experimental::coroutines_v1::coroutine_handle.0"* %agg.tmp21.reload.addr, i32 0, i32 0, !dbg !2861
  %6 = bitcast i8** %coerce.dive27 to [1 x i32]*, !dbg !2861
  %7 = load [1 x i32], [1 x i32]* %6, align 4, !dbg !2861
  call arm_aapcs_vfpcc void @_ZNSt12experimental13coroutines_v114suspend_always13await_suspendENS0_16coroutine_handleIvEE(%"struct.std::experimental::coroutines_v1::suspend_always"* %ref.tmp17.reload.addr234, [1 x i32] %7), !dbg !2861
  br label %CoroSuspend175

CoroSuspend175:                                   ; preds = %AfterCoroSave174
  br label %resume.1.landing, !dbg !2863

resume.1:                                         ; preds = %resume.entry
  br label %resume.1.landing, !dbg !2863

resume.1.landing:                                 ; preds = %resume.1, %CoroSuspend175
  %8 = phi i8 [ -1, %CoroSuspend175 ], [ 0, %resume.1 ]
  br label %AfterCoroSuspend176, !dbg !2863

AfterCoroSuspend176:                              ; preds = %resume.1.landing
  switch i8 %8, label %coro.ret [
    i8 0, label %await.ready
    i8 1, label %await.cleanup
  ], !dbg !2863

await.cleanup:                                    ; preds = %AfterCoroSuspend176
  br label %cleanup158.from.await.cleanup, !dbg !2863

cleanup158.from.await.cleanup:                    ; preds = %await.cleanup
  %.cleanup158209 = phi i32 [ 2, %await.cleanup ]
  br label %cleanup158, !dbg !2863

lpad18:                                           ; preds = %invoke.cont116, %cleanup.cont107, %cleanup.cont86, %for.cond, %cleanup.cont, %invoke.cont29
  %9 = landingpad { i8*, i32 }
          catch i8* null, !dbg !2864
  %ehselector.slot.reload.addr227 = getelementptr inbounds %_Z9adcTaskFnh.Frame, %_Z9adcTaskFnh.Frame* %FramePtr, i32 0, i32 5, !dbg !2864
  %exn.slot.reload.addr217 = getelementptr inbounds %_Z9adcTaskFnh.Frame, %_Z9adcTaskFnh.Frame* %FramePtr, i32 0, i32 4, !dbg !2864
  %10 = extractvalue { i8*, i32 } %9, 0, !dbg !2864
  store i8* %10, i8** %exn.slot.reload.addr217, align 4, !dbg !2864
  %11 = extractvalue { i8*, i32 } %9, 1, !dbg !2864
  store i32 %11, i32* %ehselector.slot.reload.addr227, align 4, !dbg !2864
  br label %catch136, !dbg !2864

await.ready:                                      ; preds = %AfterCoroSuspend176, %invoke.cont19
  %ref.tmp17.reload.addr = getelementptr inbounds %_Z9adcTaskFnh.Frame, %_Z9adcTaskFnh.Frame* %FramePtr, i32 0, i32 10, !dbg !2861
  call arm_aapcs_vfpcc void @_ZNSt12experimental13coroutines_v114suspend_always12await_resumeEv(%"struct.std::experimental::coroutines_v1::suspend_always"* %ref.tmp17.reload.addr), !dbg !2861
  br label %invoke.cont29

invoke.cont29:                                    ; preds = %await.ready
  %ref.tmp30.reload.addr240 = getelementptr inbounds %_Z9adcTaskFnh.Frame, %_Z9adcTaskFnh.Frame* %FramePtr, i32 0, i32 14, !dbg !2865
  invoke arm_aapcs_vfpcc void @_ZN3scp7drivers9start_adcEh(%"struct.scp::core::future_t"* sret %ref.tmp30.reload.addr240, i8 zeroext 1)
          to label %invoke.cont31 unwind label %lpad18, !dbg !2865

invoke.cont31:                                    ; preds = %invoke.cont29
  %ref.tmp30.reload.addr239 = getelementptr inbounds %_Z9adcTaskFnh.Frame, %_Z9adcTaskFnh.Frame* %FramePtr, i32 0, i32 14, !dbg !2865
  %call34 = call arm_aapcs_vfpcc zeroext i1 @_ZNK3scp4core8future_tIhNS0_15awaitable_stateIhEEE11await_readyEv(%"struct.scp::core::future_t"* %ref.tmp30.reload.addr239), !dbg !2865
  br label %invoke.cont33

invoke.cont33:                                    ; preds = %invoke.cont31
  br i1 %call34, label %await2.ready, label %CoroSave177, !dbg !2866

CoroSave177:                                      ; preds = %invoke.cont33
  %index.addr271 = getelementptr inbounds %_Z9adcTaskFnh.Frame, %_Z9adcTaskFnh.Frame* %FramePtr, i32 0, i32 3, !dbg !2866
  store i3 2, i3* %index.addr271, !dbg !2866
  br label %AfterCoroSave178, !dbg !2865

AfterCoroSave178:                                 ; preds = %CoroSave177
  %ref.tmp36.reload.addr = getelementptr inbounds %_Z9adcTaskFnh.Frame, %_Z9adcTaskFnh.Frame* %FramePtr, i32 0, i32 16, !dbg !2865
  %agg.tmp35.reload.addr = getelementptr inbounds %_Z9adcTaskFnh.Frame, %_Z9adcTaskFnh.Frame* %FramePtr, i32 0, i32 15, !dbg !2865
  %ref.tmp30.reload.addr238 = getelementptr inbounds %_Z9adcTaskFnh.Frame, %_Z9adcTaskFnh.Frame* %FramePtr, i32 0, i32 14, !dbg !2865
  %call37 = call arm_aapcs_vfpcc i32 @_ZNSt12experimental13coroutines_v116coroutine_handleIN3scp4core9resumable12promise_typeEE12from_addressEPv(i8* %vFrame) #3, !dbg !2865
  %coerce.dive38 = getelementptr inbounds %"struct.std::experimental::coroutines_v1::coroutine_handle", %"struct.std::experimental::coroutines_v1::coroutine_handle"* %ref.tmp36.reload.addr, i32 0, i32 0, !dbg !2865
  %coerce.dive39 = getelementptr inbounds %"struct.std::experimental::coroutines_v1::coroutine_handle.0", %"struct.std::experimental::coroutines_v1::coroutine_handle.0"* %coerce.dive38, i32 0, i32 0, !dbg !2865
  %coerce.val.ip40 = inttoptr i32 %call37 to i8*, !dbg !2865
  store i8* %coerce.val.ip40, i8** %coerce.dive39, align 4, !dbg !2865
  %12 = bitcast %"struct.std::experimental::coroutines_v1::coroutine_handle"* %ref.tmp36.reload.addr to %"struct.std::experimental::coroutines_v1::coroutine_handle.0"*, !dbg !2865
  %13 = bitcast %"struct.std::experimental::coroutines_v1::coroutine_handle.0"* %agg.tmp35.reload.addr to i8*, !dbg !2865
  %14 = bitcast %"struct.std::experimental::coroutines_v1::coroutine_handle.0"* %12 to i8*, !dbg !2865
  call void @llvm.memcpy.p0i8.p0i8.i32(i8* align 4 %13, i8* align 4 %14, i32 4, i1 false), !dbg !2865
  %coerce.dive41 = getelementptr inbounds %"struct.std::experimental::coroutines_v1::coroutine_handle.0", %"struct.std::experimental::coroutines_v1::coroutine_handle.0"* %agg.tmp35.reload.addr, i32 0, i32 0, !dbg !2865
  %15 = bitcast i8** %coerce.dive41 to [1 x i32]*, !dbg !2865
  %16 = load [1 x i32], [1 x i32]* %15, align 4, !dbg !2865
  invoke arm_aapcs_vfpcc void @_ZN3scp4core8future_tIhNS0_15awaitable_stateIhEEE13await_suspendENSt12experimental13coroutines_v116coroutine_handleIvEE(%"struct.scp::core::future_t"* %ref.tmp30.reload.addr238, [1 x i32] %16)
          to label %CoroSuspend179 unwind label %lpad32, !dbg !2865

CoroSuspend179:                                   ; preds = %AfterCoroSave178
  br label %resume.2.landing, !dbg !2866

resume.2:                                         ; preds = %resume.entry
  br label %resume.2.landing, !dbg !2866

resume.2.landing:                                 ; preds = %resume.2, %CoroSuspend179
  %17 = phi i8 [ -1, %CoroSuspend179 ], [ 0, %resume.2 ]
  br label %AfterCoroSuspend180, !dbg !2866

AfterCoroSuspend180:                              ; preds = %resume.2.landing
  switch i8 %17, label %coro.ret [
    i8 0, label %await2.ready
    i8 1, label %await2.cleanup
  ], !dbg !2866

await2.cleanup:                                   ; preds = %AfterCoroSuspend180
  br label %cleanup.from.await2.cleanup, !dbg !2866

cleanup.from.await2.cleanup:                      ; preds = %await2.cleanup
  %.cleanup203 = phi i32 [ 2, %await2.cleanup ]
  br label %cleanup, !dbg !2866

lpad32:                                           ; preds = %await2.ready, %AfterCoroSave178
  %18 = landingpad { i8*, i32 }
          catch i8* null, !dbg !2864
  %ref.tmp30.reload.addr = getelementptr inbounds %_Z9adcTaskFnh.Frame, %_Z9adcTaskFnh.Frame* %FramePtr, i32 0, i32 14, !dbg !2864
  %ehselector.slot.reload.addr226 = getelementptr inbounds %_Z9adcTaskFnh.Frame, %_Z9adcTaskFnh.Frame* %FramePtr, i32 0, i32 5, !dbg !2864
  %exn.slot.reload.addr216 = getelementptr inbounds %_Z9adcTaskFnh.Frame, %_Z9adcTaskFnh.Frame* %FramePtr, i32 0, i32 4, !dbg !2864
  %19 = extractvalue { i8*, i32 } %18, 0, !dbg !2864
  store i8* %19, i8** %exn.slot.reload.addr216, align 4, !dbg !2864
  %20 = extractvalue { i8*, i32 } %18, 1, !dbg !2864
  store i32 %20, i32* %ehselector.slot.reload.addr226, align 4, !dbg !2864
  %call46 = call arm_aapcs_vfpcc %"struct.scp::core::future_t"* @_ZN3scp4core8future_tIhNS0_15awaitable_stateIhEEED2Ev(%"struct.scp::core::future_t"* %ref.tmp30.reload.addr) #3, !dbg !2866
  br label %catch136, !dbg !2866

await2.ready:                                     ; preds = %AfterCoroSuspend180, %invoke.cont33
  %ref.tmp30.reload.addr237 = getelementptr inbounds %_Z9adcTaskFnh.Frame, %_Z9adcTaskFnh.Frame* %FramePtr, i32 0, i32 14, !dbg !2865
  %call44 = invoke arm_aapcs_vfpcc zeroext i8 @_ZNK3scp4core8future_tIhNS0_15awaitable_stateIhEEE12await_resumeEv(%"struct.scp::core::future_t"* %ref.tmp30.reload.addr237)
          to label %invoke.cont43 unwind label %lpad32, !dbg !2865

invoke.cont43:                                    ; preds = %await2.ready
  %tmp.exprcleanup.reload.addr241 = getelementptr inbounds %_Z9adcTaskFnh.Frame, %_Z9adcTaskFnh.Frame* %FramePtr, i32 0, i32 17, !dbg !2866
  store i8 %call44, i8* %tmp.exprcleanup.reload.addr241, align 1, !dbg !2866
  br label %cleanup.from.invoke.cont43, !dbg !2866

cleanup.from.invoke.cont43:                       ; preds = %invoke.cont43
  %.cleanup = phi i32 [ 0, %invoke.cont43 ]
  br label %cleanup, !dbg !2866

cleanup:                                          ; preds = %cleanup.from.invoke.cont43, %cleanup.from.await2.cleanup
  %cleanup.dest.slot.0 = phi i32 [ %.cleanup, %cleanup.from.invoke.cont43 ], [ %.cleanup203, %cleanup.from.await2.cleanup ]
  %ref.tmp30.reload.addr236 = getelementptr inbounds %_Z9adcTaskFnh.Frame, %_Z9adcTaskFnh.Frame* %FramePtr, i32 0, i32 14, !dbg !2866
  %call45 = call arm_aapcs_vfpcc %"struct.scp::core::future_t"* @_ZN3scp4core8future_tIhNS0_15awaitable_stateIhEEED2Ev(%"struct.scp::core::future_t"* %ref.tmp30.reload.addr236) #3, !dbg !2866
  %cond4 = icmp eq i32 %cleanup.dest.slot.0, 0
  br i1 %cond4, label %cleanup.cont, label %cleanup158.from.cleanup

cleanup158.from.cleanup:                          ; preds = %cleanup
  %cleanup.dest.slot.0.cleanup158 = phi i32 [ %cleanup.dest.slot.0, %cleanup ]
  br label %cleanup158

cleanup.cont:                                     ; preds = %cleanup
  %ref.tmp47.reload.addr246 = getelementptr inbounds %_Z9adcTaskFnh.Frame, %_Z9adcTaskFnh.Frame* %FramePtr, i32 0, i32 19, !dbg !2866
  %tmp.exprcleanup.reload.addr = getelementptr inbounds %_Z9adcTaskFnh.Frame, %_Z9adcTaskFnh.Frame* %FramePtr, i32 0, i32 17, !dbg !2866
  %okx.reload.addr = getelementptr inbounds %_Z9adcTaskFnh.Frame, %_Z9adcTaskFnh.Frame* %FramePtr, i32 0, i32 13, !dbg !2866
  %21 = load i8, i8* %tmp.exprcleanup.reload.addr, align 1, !dbg !2866
  call void @llvm.dbg.value(metadata i8 %21, metadata !2867, metadata !DIExpression()), !dbg !2868
  store i8 %21, i8* %okx.reload.addr, align 1, !dbg !2868
  invoke arm_aapcs_vfpcc void @_ZN3scp7drivers9start_adcEh(%"struct.scp::core::future_t"* sret %ref.tmp47.reload.addr246, i8 zeroext 2)
          to label %invoke.cont48 unwind label %lpad18, !dbg !2869

invoke.cont48:                                    ; preds = %cleanup.cont
  %ref.tmp47.reload.addr245 = getelementptr inbounds %_Z9adcTaskFnh.Frame, %_Z9adcTaskFnh.Frame* %FramePtr, i32 0, i32 19, !dbg !2869
  %call51 = call arm_aapcs_vfpcc zeroext i1 @_ZNK3scp4core8future_tIhNS0_15awaitable_stateIhEEE11await_readyEv(%"struct.scp::core::future_t"* %ref.tmp47.reload.addr245), !dbg !2869
  br label %invoke.cont50

invoke.cont50:                                    ; preds = %invoke.cont48
  br i1 %call51, label %await3.ready, label %CoroSave181, !dbg !2870

CoroSave181:                                      ; preds = %invoke.cont50
  %index.addr272 = getelementptr inbounds %_Z9adcTaskFnh.Frame, %_Z9adcTaskFnh.Frame* %FramePtr, i32 0, i32 3, !dbg !2870
  store i3 3, i3* %index.addr272, !dbg !2870
  br label %AfterCoroSave182, !dbg !2869

AfterCoroSave182:                                 ; preds = %CoroSave181
  %ref.tmp53.reload.addr = getelementptr inbounds %_Z9adcTaskFnh.Frame, %_Z9adcTaskFnh.Frame* %FramePtr, i32 0, i32 21, !dbg !2869
  %agg.tmp52.reload.addr = getelementptr inbounds %_Z9adcTaskFnh.Frame, %_Z9adcTaskFnh.Frame* %FramePtr, i32 0, i32 20, !dbg !2869
  %ref.tmp47.reload.addr244 = getelementptr inbounds %_Z9adcTaskFnh.Frame, %_Z9adcTaskFnh.Frame* %FramePtr, i32 0, i32 19, !dbg !2869
  %call54 = call arm_aapcs_vfpcc i32 @_ZNSt12experimental13coroutines_v116coroutine_handleIN3scp4core9resumable12promise_typeEE12from_addressEPv(i8* %vFrame) #3, !dbg !2869
  %coerce.dive55 = getelementptr inbounds %"struct.std::experimental::coroutines_v1::coroutine_handle", %"struct.std::experimental::coroutines_v1::coroutine_handle"* %ref.tmp53.reload.addr, i32 0, i32 0, !dbg !2869
  %coerce.dive56 = getelementptr inbounds %"struct.std::experimental::coroutines_v1::coroutine_handle.0", %"struct.std::experimental::coroutines_v1::coroutine_handle.0"* %coerce.dive55, i32 0, i32 0, !dbg !2869
  %coerce.val.ip57 = inttoptr i32 %call54 to i8*, !dbg !2869
  store i8* %coerce.val.ip57, i8** %coerce.dive56, align 4, !dbg !2869
  %22 = bitcast %"struct.std::experimental::coroutines_v1::coroutine_handle"* %ref.tmp53.reload.addr to %"struct.std::experimental::coroutines_v1::coroutine_handle.0"*, !dbg !2869
  %23 = bitcast %"struct.std::experimental::coroutines_v1::coroutine_handle.0"* %agg.tmp52.reload.addr to i8*, !dbg !2869
  %24 = bitcast %"struct.std::experimental::coroutines_v1::coroutine_handle.0"* %22 to i8*, !dbg !2869
  call void @llvm.memcpy.p0i8.p0i8.i32(i8* align 4 %23, i8* align 4 %24, i32 4, i1 false), !dbg !2869
  %coerce.dive58 = getelementptr inbounds %"struct.std::experimental::coroutines_v1::coroutine_handle.0", %"struct.std::experimental::coroutines_v1::coroutine_handle.0"* %agg.tmp52.reload.addr, i32 0, i32 0, !dbg !2869
  %25 = bitcast i8** %coerce.dive58 to [1 x i32]*, !dbg !2869
  %26 = load [1 x i32], [1 x i32]* %25, align 4, !dbg !2869
  invoke arm_aapcs_vfpcc void @_ZN3scp4core8future_tIhNS0_15awaitable_stateIhEEE13await_suspendENSt12experimental13coroutines_v116coroutine_handleIvEE(%"struct.scp::core::future_t"* %ref.tmp47.reload.addr244, [1 x i32] %26)
          to label %CoroSuspend183 unwind label %lpad49, !dbg !2869

CoroSuspend183:                                   ; preds = %AfterCoroSave182
  br label %resume.3.landing, !dbg !2870

resume.3:                                         ; preds = %resume.entry
  br label %resume.3.landing, !dbg !2870

resume.3.landing:                                 ; preds = %resume.3, %CoroSuspend183
  %27 = phi i8 [ -1, %CoroSuspend183 ], [ 0, %resume.3 ]
  br label %AfterCoroSuspend184, !dbg !2870

AfterCoroSuspend184:                              ; preds = %resume.3.landing
  switch i8 %27, label %coro.ret [
    i8 0, label %await3.ready
    i8 1, label %await3.cleanup
  ], !dbg !2870

await3.cleanup:                                   ; preds = %AfterCoroSuspend184
  br label %cleanup62.from.await3.cleanup, !dbg !2870

cleanup62.from.await3.cleanup:                    ; preds = %await3.cleanup
  %.cleanup62204 = phi i32 [ 2, %await3.cleanup ]
  br label %cleanup62, !dbg !2870

lpad49:                                           ; preds = %await3.ready, %AfterCoroSave182
  %28 = landingpad { i8*, i32 }
          catch i8* null, !dbg !2864
  %ref.tmp47.reload.addr = getelementptr inbounds %_Z9adcTaskFnh.Frame, %_Z9adcTaskFnh.Frame* %FramePtr, i32 0, i32 19, !dbg !2864
  %ehselector.slot.reload.addr225 = getelementptr inbounds %_Z9adcTaskFnh.Frame, %_Z9adcTaskFnh.Frame* %FramePtr, i32 0, i32 5, !dbg !2864
  %exn.slot.reload.addr215 = getelementptr inbounds %_Z9adcTaskFnh.Frame, %_Z9adcTaskFnh.Frame* %FramePtr, i32 0, i32 4, !dbg !2864
  %29 = extractvalue { i8*, i32 } %28, 0, !dbg !2864
  store i8* %29, i8** %exn.slot.reload.addr215, align 4, !dbg !2864
  %30 = extractvalue { i8*, i32 } %28, 1, !dbg !2864
  store i32 %30, i32* %ehselector.slot.reload.addr225, align 4, !dbg !2864
  %call66 = call arm_aapcs_vfpcc %"struct.scp::core::future_t"* @_ZN3scp4core8future_tIhNS0_15awaitable_stateIhEEED2Ev(%"struct.scp::core::future_t"* %ref.tmp47.reload.addr) #3, !dbg !2870
  br label %catch136, !dbg !2870

await3.ready:                                     ; preds = %AfterCoroSuspend184, %invoke.cont50
  %ref.tmp47.reload.addr243 = getelementptr inbounds %_Z9adcTaskFnh.Frame, %_Z9adcTaskFnh.Frame* %FramePtr, i32 0, i32 19, !dbg !2869
  %call61 = invoke arm_aapcs_vfpcc zeroext i8 @_ZNK3scp4core8future_tIhNS0_15awaitable_stateIhEEE12await_resumeEv(%"struct.scp::core::future_t"* %ref.tmp47.reload.addr243)
          to label %invoke.cont60 unwind label %lpad49, !dbg !2869

invoke.cont60:                                    ; preds = %await3.ready
  %tmp.exprcleanup67.reload.addr247 = getelementptr inbounds %_Z9adcTaskFnh.Frame, %_Z9adcTaskFnh.Frame* %FramePtr, i32 0, i32 22, !dbg !2870
  store i8 %call61, i8* %tmp.exprcleanup67.reload.addr247, align 1, !dbg !2870
  br label %cleanup62.from.invoke.cont60, !dbg !2870

cleanup62.from.invoke.cont60:                     ; preds = %invoke.cont60
  %.cleanup62 = phi i32 [ 0, %invoke.cont60 ]
  br label %cleanup62, !dbg !2870

cleanup62:                                        ; preds = %cleanup62.from.invoke.cont60, %cleanup62.from.await3.cleanup
  %cleanup.dest.slot.1 = phi i32 [ %.cleanup62, %cleanup62.from.invoke.cont60 ], [ %.cleanup62204, %cleanup62.from.await3.cleanup ]
  %ref.tmp47.reload.addr242 = getelementptr inbounds %_Z9adcTaskFnh.Frame, %_Z9adcTaskFnh.Frame* %FramePtr, i32 0, i32 19, !dbg !2870
  %call63 = call arm_aapcs_vfpcc %"struct.scp::core::future_t"* @_ZN3scp4core8future_tIhNS0_15awaitable_stateIhEEED2Ev(%"struct.scp::core::future_t"* %ref.tmp47.reload.addr242) #3, !dbg !2870
  %cond3 = icmp eq i32 %cleanup.dest.slot.1, 0
  br i1 %cond3, label %cleanup.cont65, label %cleanup158.from.cleanup62

cleanup158.from.cleanup62:                        ; preds = %cleanup62
  %cleanup.dest.slot.1.cleanup158 = phi i32 [ %cleanup.dest.slot.1, %cleanup62 ]
  br label %cleanup158

cleanup.cont65:                                   ; preds = %cleanup62
  %tmp.exprcleanup67.reload.addr = getelementptr inbounds %_Z9adcTaskFnh.Frame, %_Z9adcTaskFnh.Frame* %FramePtr, i32 0, i32 22, !dbg !2870
  %oky.reload.addr = getelementptr inbounds %_Z9adcTaskFnh.Frame, %_Z9adcTaskFnh.Frame* %FramePtr, i32 0, i32 18, !dbg !2870
  %31 = load i8, i8* %tmp.exprcleanup67.reload.addr, align 1, !dbg !2870
  call void @llvm.dbg.value(metadata i8 %31, metadata !2871, metadata !DIExpression()), !dbg !2872
  store i8 %31, i8* %oky.reload.addr, align 1, !dbg !2872
  br label %for.cond, !dbg !2873

for.cond:                                         ; preds = %cleanup.cont134, %cleanup.cont65
  %ref.tmp68.reload.addr253 = getelementptr inbounds %_Z9adcTaskFnh.Frame, %_Z9adcTaskFnh.Frame* %FramePtr, i32 0, i32 24, !dbg !2874
  invoke arm_aapcs_vfpcc void @_ZN3scp7drivers9read_adc3Eh(%"struct.scp::core::future_t.1"* sret %ref.tmp68.reload.addr253, i8 zeroext 1)
          to label %invoke.cont69 unwind label %lpad18, !dbg !2874

invoke.cont69:                                    ; preds = %for.cond
  %ref.tmp68.reload.addr252 = getelementptr inbounds %_Z9adcTaskFnh.Frame, %_Z9adcTaskFnh.Frame* %FramePtr, i32 0, i32 24, !dbg !2874
  %call72 = call arm_aapcs_vfpcc zeroext i1 @_ZNK3scp4core8future_tItNS0_15awaitable_stateItEEE11await_readyEv(%"struct.scp::core::future_t.1"* %ref.tmp68.reload.addr252), !dbg !2874
  br label %invoke.cont71

invoke.cont71:                                    ; preds = %invoke.cont69
  br i1 %call72, label %await4.ready, label %CoroSave185, !dbg !2878

CoroSave185:                                      ; preds = %invoke.cont71
  %index.addr273 = getelementptr inbounds %_Z9adcTaskFnh.Frame, %_Z9adcTaskFnh.Frame* %FramePtr, i32 0, i32 3, !dbg !2878
  store i3 -4, i3* %index.addr273, !dbg !2878
  br label %AfterCoroSave186, !dbg !2874

AfterCoroSave186:                                 ; preds = %CoroSave185
  %ref.tmp74.reload.addr = getelementptr inbounds %_Z9adcTaskFnh.Frame, %_Z9adcTaskFnh.Frame* %FramePtr, i32 0, i32 26, !dbg !2874
  %agg.tmp73.reload.addr = getelementptr inbounds %_Z9adcTaskFnh.Frame, %_Z9adcTaskFnh.Frame* %FramePtr, i32 0, i32 25, !dbg !2874
  %ref.tmp68.reload.addr251 = getelementptr inbounds %_Z9adcTaskFnh.Frame, %_Z9adcTaskFnh.Frame* %FramePtr, i32 0, i32 24, !dbg !2874
  %call75 = call arm_aapcs_vfpcc i32 @_ZNSt12experimental13coroutines_v116coroutine_handleIN3scp4core9resumable12promise_typeEE12from_addressEPv(i8* %vFrame) #3, !dbg !2874
  %coerce.dive76 = getelementptr inbounds %"struct.std::experimental::coroutines_v1::coroutine_handle", %"struct.std::experimental::coroutines_v1::coroutine_handle"* %ref.tmp74.reload.addr, i32 0, i32 0, !dbg !2874
  %coerce.dive77 = getelementptr inbounds %"struct.std::experimental::coroutines_v1::coroutine_handle.0", %"struct.std::experimental::coroutines_v1::coroutine_handle.0"* %coerce.dive76, i32 0, i32 0, !dbg !2874
  %coerce.val.ip78 = inttoptr i32 %call75 to i8*, !dbg !2874
  store i8* %coerce.val.ip78, i8** %coerce.dive77, align 4, !dbg !2874
  %32 = bitcast %"struct.std::experimental::coroutines_v1::coroutine_handle"* %ref.tmp74.reload.addr to %"struct.std::experimental::coroutines_v1::coroutine_handle.0"*, !dbg !2874
  %33 = bitcast %"struct.std::experimental::coroutines_v1::coroutine_handle.0"* %agg.tmp73.reload.addr to i8*, !dbg !2874
  %34 = bitcast %"struct.std::experimental::coroutines_v1::coroutine_handle.0"* %32 to i8*, !dbg !2874
  call void @llvm.memcpy.p0i8.p0i8.i32(i8* align 4 %33, i8* align 4 %34, i32 4, i1 false), !dbg !2874
  %coerce.dive79 = getelementptr inbounds %"struct.std::experimental::coroutines_v1::coroutine_handle.0", %"struct.std::experimental::coroutines_v1::coroutine_handle.0"* %agg.tmp73.reload.addr, i32 0, i32 0, !dbg !2874
  %35 = bitcast i8** %coerce.dive79 to [1 x i32]*, !dbg !2874
  %36 = load [1 x i32], [1 x i32]* %35, align 4, !dbg !2874
  invoke arm_aapcs_vfpcc void @_ZN3scp4core8future_tItNS0_15awaitable_stateItEEE13await_suspendENSt12experimental13coroutines_v116coroutine_handleIvEE(%"struct.scp::core::future_t.1"* %ref.tmp68.reload.addr251, [1 x i32] %36)
          to label %CoroSuspend187 unwind label %lpad70, !dbg !2874

CoroSuspend187:                                   ; preds = %AfterCoroSave186
  br label %resume.4.landing, !dbg !2878

resume.4:                                         ; preds = %resume.entry
  br label %resume.4.landing, !dbg !2878

resume.4.landing:                                 ; preds = %resume.4, %CoroSuspend187
  %37 = phi i8 [ -1, %CoroSuspend187 ], [ 0, %resume.4 ]
  br label %AfterCoroSuspend188, !dbg !2878

AfterCoroSuspend188:                              ; preds = %resume.4.landing
  switch i8 %37, label %coro.ret [
    i8 0, label %await4.ready
    i8 1, label %await4.cleanup
  ], !dbg !2878

await4.cleanup:                                   ; preds = %AfterCoroSuspend188
  br label %cleanup83.from.await4.cleanup, !dbg !2878

cleanup83.from.await4.cleanup:                    ; preds = %await4.cleanup
  %.cleanup83205 = phi i32 [ 2, %await4.cleanup ]
  br label %cleanup83, !dbg !2878

lpad70:                                           ; preds = %await4.ready, %AfterCoroSave186
  %38 = landingpad { i8*, i32 }
          catch i8* null, !dbg !2879
  %ref.tmp68.reload.addr = getelementptr inbounds %_Z9adcTaskFnh.Frame, %_Z9adcTaskFnh.Frame* %FramePtr, i32 0, i32 24, !dbg !2879
  %ehselector.slot.reload.addr224 = getelementptr inbounds %_Z9adcTaskFnh.Frame, %_Z9adcTaskFnh.Frame* %FramePtr, i32 0, i32 5, !dbg !2879
  %exn.slot.reload.addr214 = getelementptr inbounds %_Z9adcTaskFnh.Frame, %_Z9adcTaskFnh.Frame* %FramePtr, i32 0, i32 4, !dbg !2879
  %39 = extractvalue { i8*, i32 } %38, 0, !dbg !2879
  store i8* %39, i8** %exn.slot.reload.addr214, align 4, !dbg !2879
  %40 = extractvalue { i8*, i32 } %38, 1, !dbg !2879
  store i32 %40, i32* %ehselector.slot.reload.addr224, align 4, !dbg !2879
  %call87 = call arm_aapcs_vfpcc %"struct.scp::core::future_t.1"* @_ZN3scp4core8future_tItNS0_15awaitable_stateItEEED2Ev(%"struct.scp::core::future_t.1"* %ref.tmp68.reload.addr) #3, !dbg !2878
  br label %catch136, !dbg !2878

await4.ready:                                     ; preds = %AfterCoroSuspend188, %invoke.cont71
  %ref.tmp68.reload.addr250 = getelementptr inbounds %_Z9adcTaskFnh.Frame, %_Z9adcTaskFnh.Frame* %FramePtr, i32 0, i32 24, !dbg !2874
  %call82 = invoke arm_aapcs_vfpcc zeroext i16 @_ZNK3scp4core8future_tItNS0_15awaitable_stateItEEE12await_resumeEv(%"struct.scp::core::future_t.1"* %ref.tmp68.reload.addr250)
          to label %invoke.cont81 unwind label %lpad70, !dbg !2874

invoke.cont81:                                    ; preds = %await4.ready
  %tmp.exprcleanup88.reload.addr254 = getelementptr inbounds %_Z9adcTaskFnh.Frame, %_Z9adcTaskFnh.Frame* %FramePtr, i32 0, i32 27, !dbg !2878
  store i16 %call82, i16* %tmp.exprcleanup88.reload.addr254, align 2, !dbg !2878
  br label %cleanup83.from.invoke.cont81, !dbg !2878

cleanup83.from.invoke.cont81:                     ; preds = %invoke.cont81
  %.cleanup83 = phi i32 [ 0, %invoke.cont81 ]
  br label %cleanup83, !dbg !2878

cleanup83:                                        ; preds = %cleanup83.from.invoke.cont81, %cleanup83.from.await4.cleanup
  %cleanup.dest.slot.2 = phi i32 [ %.cleanup83, %cleanup83.from.invoke.cont81 ], [ %.cleanup83205, %cleanup83.from.await4.cleanup ]
  %ref.tmp68.reload.addr249 = getelementptr inbounds %_Z9adcTaskFnh.Frame, %_Z9adcTaskFnh.Frame* %FramePtr, i32 0, i32 24, !dbg !2878
  %call84 = call arm_aapcs_vfpcc %"struct.scp::core::future_t.1"* @_ZN3scp4core8future_tItNS0_15awaitable_stateItEEED2Ev(%"struct.scp::core::future_t.1"* %ref.tmp68.reload.addr249) #3, !dbg !2878
  %cond1 = icmp eq i32 %cleanup.dest.slot.2, 0
  br i1 %cond1, label %cleanup.cont86, label %cleanup158.from.cleanup83

cleanup158.from.cleanup83:                        ; preds = %cleanup83
  %cleanup.dest.slot.2.cleanup158 = phi i32 [ %cleanup.dest.slot.2, %cleanup83 ]
  br label %cleanup158

cleanup.cont86:                                   ; preds = %cleanup83
  %ref.tmp89.reload.addr259 = getelementptr inbounds %_Z9adcTaskFnh.Frame, %_Z9adcTaskFnh.Frame* %FramePtr, i32 0, i32 29, !dbg !2878
  %tmp.exprcleanup88.reload.addr = getelementptr inbounds %_Z9adcTaskFnh.Frame, %_Z9adcTaskFnh.Frame* %FramePtr, i32 0, i32 27, !dbg !2878
  %x.reload.addr248 = getelementptr inbounds %_Z9adcTaskFnh.Frame, %_Z9adcTaskFnh.Frame* %FramePtr, i32 0, i32 23, !dbg !2878
  %41 = load i16, i16* %tmp.exprcleanup88.reload.addr, align 2, !dbg !2878
  call void @llvm.dbg.value(metadata i16 %41, metadata !2880, metadata !DIExpression()), !dbg !2881
  store i16 %41, i16* %x.reload.addr248, align 2, !dbg !2881
  invoke arm_aapcs_vfpcc void @_ZN3scp7drivers9read_adc3Eh(%"struct.scp::core::future_t.1"* sret %ref.tmp89.reload.addr259, i8 zeroext 2)
          to label %invoke.cont90 unwind label %lpad18, !dbg !2882

invoke.cont90:                                    ; preds = %cleanup.cont86
  %ref.tmp89.reload.addr258 = getelementptr inbounds %_Z9adcTaskFnh.Frame, %_Z9adcTaskFnh.Frame* %FramePtr, i32 0, i32 29, !dbg !2882
  %call93 = call arm_aapcs_vfpcc zeroext i1 @_ZNK3scp4core8future_tItNS0_15awaitable_stateItEEE11await_readyEv(%"struct.scp::core::future_t.1"* %ref.tmp89.reload.addr258), !dbg !2882
  br label %invoke.cont92

invoke.cont92:                                    ; preds = %invoke.cont90
  br i1 %call93, label %await5.ready, label %CoroSave189, !dbg !2883

CoroSave189:                                      ; preds = %invoke.cont92
  %index.addr274 = getelementptr inbounds %_Z9adcTaskFnh.Frame, %_Z9adcTaskFnh.Frame* %FramePtr, i32 0, i32 3, !dbg !2883
  store i3 -3, i3* %index.addr274, !dbg !2883
  br label %AfterCoroSave190, !dbg !2882

AfterCoroSave190:                                 ; preds = %CoroSave189
  %ref.tmp95.reload.addr = getelementptr inbounds %_Z9adcTaskFnh.Frame, %_Z9adcTaskFnh.Frame* %FramePtr, i32 0, i32 31, !dbg !2882
  %agg.tmp94.reload.addr = getelementptr inbounds %_Z9adcTaskFnh.Frame, %_Z9adcTaskFnh.Frame* %FramePtr, i32 0, i32 30, !dbg !2882
  %ref.tmp89.reload.addr257 = getelementptr inbounds %_Z9adcTaskFnh.Frame, %_Z9adcTaskFnh.Frame* %FramePtr, i32 0, i32 29, !dbg !2882
  %call96 = call arm_aapcs_vfpcc i32 @_ZNSt12experimental13coroutines_v116coroutine_handleIN3scp4core9resumable12promise_typeEE12from_addressEPv(i8* %vFrame) #3, !dbg !2882
  %coerce.dive97 = getelementptr inbounds %"struct.std::experimental::coroutines_v1::coroutine_handle", %"struct.std::experimental::coroutines_v1::coroutine_handle"* %ref.tmp95.reload.addr, i32 0, i32 0, !dbg !2882
  %coerce.dive98 = getelementptr inbounds %"struct.std::experimental::coroutines_v1::coroutine_handle.0", %"struct.std::experimental::coroutines_v1::coroutine_handle.0"* %coerce.dive97, i32 0, i32 0, !dbg !2882
  %coerce.val.ip99 = inttoptr i32 %call96 to i8*, !dbg !2882
  store i8* %coerce.val.ip99, i8** %coerce.dive98, align 4, !dbg !2882
  %42 = bitcast %"struct.std::experimental::coroutines_v1::coroutine_handle"* %ref.tmp95.reload.addr to %"struct.std::experimental::coroutines_v1::coroutine_handle.0"*, !dbg !2882
  %43 = bitcast %"struct.std::experimental::coroutines_v1::coroutine_handle.0"* %agg.tmp94.reload.addr to i8*, !dbg !2882
  %44 = bitcast %"struct.std::experimental::coroutines_v1::coroutine_handle.0"* %42 to i8*, !dbg !2882
  call void @llvm.memcpy.p0i8.p0i8.i32(i8* align 4 %43, i8* align 4 %44, i32 4, i1 false), !dbg !2882
  %coerce.dive100 = getelementptr inbounds %"struct.std::experimental::coroutines_v1::coroutine_handle.0", %"struct.std::experimental::coroutines_v1::coroutine_handle.0"* %agg.tmp94.reload.addr, i32 0, i32 0, !dbg !2882
  %45 = bitcast i8** %coerce.dive100 to [1 x i32]*, !dbg !2882
  %46 = load [1 x i32], [1 x i32]* %45, align 4, !dbg !2882
  invoke arm_aapcs_vfpcc void @_ZN3scp4core8future_tItNS0_15awaitable_stateItEEE13await_suspendENSt12experimental13coroutines_v116coroutine_handleIvEE(%"struct.scp::core::future_t.1"* %ref.tmp89.reload.addr257, [1 x i32] %46)
          to label %CoroSuspend191 unwind label %lpad91, !dbg !2882

CoroSuspend191:                                   ; preds = %AfterCoroSave190
  br label %resume.5.landing, !dbg !2883

resume.5:                                         ; preds = %resume.entry
  br label %resume.5.landing, !dbg !2883

resume.5.landing:                                 ; preds = %resume.5, %CoroSuspend191
  %47 = phi i8 [ -1, %CoroSuspend191 ], [ 0, %resume.5 ]
  br label %AfterCoroSuspend192, !dbg !2883

AfterCoroSuspend192:                              ; preds = %resume.5.landing
  switch i8 %47, label %coro.ret [
    i8 0, label %await5.ready
    i8 1, label %await5.cleanup
  ], !dbg !2883

await5.cleanup:                                   ; preds = %AfterCoroSuspend192
  br label %cleanup104.from.await5.cleanup, !dbg !2883

cleanup104.from.await5.cleanup:                   ; preds = %await5.cleanup
  %.cleanup104206 = phi i32 [ 2, %await5.cleanup ]
  br label %cleanup104, !dbg !2883

lpad91:                                           ; preds = %await5.ready, %AfterCoroSave190
  %48 = landingpad { i8*, i32 }
          catch i8* null, !dbg !2879
  %ref.tmp89.reload.addr = getelementptr inbounds %_Z9adcTaskFnh.Frame, %_Z9adcTaskFnh.Frame* %FramePtr, i32 0, i32 29, !dbg !2879
  %ehselector.slot.reload.addr223 = getelementptr inbounds %_Z9adcTaskFnh.Frame, %_Z9adcTaskFnh.Frame* %FramePtr, i32 0, i32 5, !dbg !2879
  %exn.slot.reload.addr213 = getelementptr inbounds %_Z9adcTaskFnh.Frame, %_Z9adcTaskFnh.Frame* %FramePtr, i32 0, i32 4, !dbg !2879
  %49 = extractvalue { i8*, i32 } %48, 0, !dbg !2879
  store i8* %49, i8** %exn.slot.reload.addr213, align 4, !dbg !2879
  %50 = extractvalue { i8*, i32 } %48, 1, !dbg !2879
  store i32 %50, i32* %ehselector.slot.reload.addr223, align 4, !dbg !2879
  %call108 = call arm_aapcs_vfpcc %"struct.scp::core::future_t.1"* @_ZN3scp4core8future_tItNS0_15awaitable_stateItEEED2Ev(%"struct.scp::core::future_t.1"* %ref.tmp89.reload.addr) #3, !dbg !2883
  br label %catch136, !dbg !2883

await5.ready:                                     ; preds = %AfterCoroSuspend192, %invoke.cont92
  %ref.tmp89.reload.addr256 = getelementptr inbounds %_Z9adcTaskFnh.Frame, %_Z9adcTaskFnh.Frame* %FramePtr, i32 0, i32 29, !dbg !2882
  %call103 = invoke arm_aapcs_vfpcc zeroext i16 @_ZNK3scp4core8future_tItNS0_15awaitable_stateItEEE12await_resumeEv(%"struct.scp::core::future_t.1"* %ref.tmp89.reload.addr256)
          to label %invoke.cont102 unwind label %lpad91, !dbg !2882

invoke.cont102:                                   ; preds = %await5.ready
  %tmp.exprcleanup109.reload.addr260 = getelementptr inbounds %_Z9adcTaskFnh.Frame, %_Z9adcTaskFnh.Frame* %FramePtr, i32 0, i32 32, !dbg !2883
  store i16 %call103, i16* %tmp.exprcleanup109.reload.addr260, align 2, !dbg !2883
  br label %cleanup104.from.invoke.cont102, !dbg !2883

cleanup104.from.invoke.cont102:                   ; preds = %invoke.cont102
  %.cleanup104 = phi i32 [ 0, %invoke.cont102 ]
  br label %cleanup104, !dbg !2883

cleanup104:                                       ; preds = %cleanup104.from.invoke.cont102, %cleanup104.from.await5.cleanup
  %cleanup.dest.slot.3 = phi i32 [ %.cleanup104, %cleanup104.from.invoke.cont102 ], [ %.cleanup104206, %cleanup104.from.await5.cleanup ]
  %ref.tmp89.reload.addr255 = getelementptr inbounds %_Z9adcTaskFnh.Frame, %_Z9adcTaskFnh.Frame* %FramePtr, i32 0, i32 29, !dbg !2883
  %call105 = call arm_aapcs_vfpcc %"struct.scp::core::future_t.1"* @_ZN3scp4core8future_tItNS0_15awaitable_stateItEEED2Ev(%"struct.scp::core::future_t.1"* %ref.tmp89.reload.addr255) #3, !dbg !2883
  %cond2 = icmp eq i32 %cleanup.dest.slot.3, 0
  br i1 %cond2, label %cleanup.cont107, label %cleanup158.from.cleanup104

cleanup158.from.cleanup104:                       ; preds = %cleanup104
  %cleanup.dest.slot.3.cleanup158 = phi i32 [ %cleanup.dest.slot.3, %cleanup104 ]
  br label %cleanup158

cleanup.cont107:                                  ; preds = %cleanup104
  %tmp.exprcleanup109.reload.addr = getelementptr inbounds %_Z9adcTaskFnh.Frame, %_Z9adcTaskFnh.Frame* %FramePtr, i32 0, i32 32, !dbg !2883
  %y.reload.addr = getelementptr inbounds %_Z9adcTaskFnh.Frame, %_Z9adcTaskFnh.Frame* %FramePtr, i32 0, i32 28, !dbg !2883
  %x.reload.addr = getelementptr inbounds %_Z9adcTaskFnh.Frame, %_Z9adcTaskFnh.Frame* %FramePtr, i32 0, i32 23, !dbg !2883
  %51 = load i16, i16* %tmp.exprcleanup109.reload.addr, align 2, !dbg !2883
  call void @llvm.dbg.value(metadata i16 %51, metadata !2884, metadata !DIExpression()), !dbg !2885
  store i16 %51, i16* %y.reload.addr, align 2, !dbg !2885
  %52 = load i16, i16* %x.reload.addr, align 2, !dbg !2886
  call void @llvm.dbg.value(metadata i16 %52, metadata !2880, metadata !DIExpression()), !dbg !2881
  %conv = zext i16 %52 to i32, !dbg !2886
  %53 = load i16, i16* %y.reload.addr, align 2, !dbg !2887
  call void @llvm.dbg.value(metadata i16 %53, metadata !2884, metadata !DIExpression()), !dbg !2885
  %conv110 = zext i16 %53 to i32, !dbg !2887
  %54 = load volatile i16, i16* @__accel_x, align 2, !dbg !2888
  %conv111 = sext i16 %54 to i32, !dbg !2888
  %55 = load volatile i16, i16* @__accel_y, align 2, !dbg !2889
  %conv112 = sext i16 %55 to i32, !dbg !2889
  %56 = load volatile i16, i16* @__accel_z, align 2, !dbg !2890
  %conv113 = sext i16 %56 to i32, !dbg !2890
  %57 = load volatile i8, i8* @__accel_whoami, align 1, !dbg !2891
  %conv114 = zext i8 %57 to i32, !dbg !2891
  %58 = load volatile i16, i16* @__accel_count, align 2, !dbg !2892
  %conv115 = sext i16 %58 to i32, !dbg !2892
  %59 = load volatile i32, i32* @__timer_count, align 4, !dbg !2893
  %60 = load volatile i32, i32* @__idle_count, align 4, !dbg !2894
  invoke arm_aapcs_vfpcc void (i8*, ...) @trace(i8* getelementptr inbounds ([55 x i8], [55 x i8]* @.str, i32 0, i32 0), i32 %conv, i32 %conv110, i32 %conv111, i32 %conv112, i32 %conv113, i32 %conv114, i32 %conv115, i32 %59, i32 %60)
          to label %invoke.cont116 unwind label %lpad18, !dbg !2895

invoke.cont116:                                   ; preds = %cleanup.cont107
  %ref.tmp117.reload.addr265 = getelementptr inbounds %_Z9adcTaskFnh.Frame, %_Z9adcTaskFnh.Frame* %FramePtr, i32 0, i32 33, !dbg !2896
  invoke arm_aapcs_vfpcc void @_ZN3scp7drivers13wait_on_ticksEm(%"struct.scp::core::future_t.5"* sret %ref.tmp117.reload.addr265, i32 10)
          to label %invoke.cont118 unwind label %lpad18, !dbg !2896

invoke.cont118:                                   ; preds = %invoke.cont116
  %ref.tmp117.reload.addr264 = getelementptr inbounds %_Z9adcTaskFnh.Frame, %_Z9adcTaskFnh.Frame* %FramePtr, i32 0, i32 33, !dbg !2896
  %call121 = call arm_aapcs_vfpcc zeroext i1 @_ZNK3scp4core8future_tIvNS0_15awaitable_stateIvEEE11await_readyEv(%"struct.scp::core::future_t.5"* %ref.tmp117.reload.addr264), !dbg !2896
  br label %invoke.cont120

invoke.cont120:                                   ; preds = %invoke.cont118
  br i1 %call121, label %await6.ready, label %CoroSave193, !dbg !2897

CoroSave193:                                      ; preds = %invoke.cont120
  %index.addr275 = getelementptr inbounds %_Z9adcTaskFnh.Frame, %_Z9adcTaskFnh.Frame* %FramePtr, i32 0, i32 3, !dbg !2897
  store i3 -2, i3* %index.addr275, !dbg !2897
  br label %AfterCoroSave194, !dbg !2896

AfterCoroSave194:                                 ; preds = %CoroSave193
  %ref.tmp123.reload.addr = getelementptr inbounds %_Z9adcTaskFnh.Frame, %_Z9adcTaskFnh.Frame* %FramePtr, i32 0, i32 35, !dbg !2896
  %agg.tmp122.reload.addr = getelementptr inbounds %_Z9adcTaskFnh.Frame, %_Z9adcTaskFnh.Frame* %FramePtr, i32 0, i32 34, !dbg !2896
  %ref.tmp117.reload.addr263 = getelementptr inbounds %_Z9adcTaskFnh.Frame, %_Z9adcTaskFnh.Frame* %FramePtr, i32 0, i32 33, !dbg !2896
  %call124 = call arm_aapcs_vfpcc i32 @_ZNSt12experimental13coroutines_v116coroutine_handleIN3scp4core9resumable12promise_typeEE12from_addressEPv(i8* %vFrame) #3, !dbg !2896
  %coerce.dive125 = getelementptr inbounds %"struct.std::experimental::coroutines_v1::coroutine_handle", %"struct.std::experimental::coroutines_v1::coroutine_handle"* %ref.tmp123.reload.addr, i32 0, i32 0, !dbg !2896
  %coerce.dive126 = getelementptr inbounds %"struct.std::experimental::coroutines_v1::coroutine_handle.0", %"struct.std::experimental::coroutines_v1::coroutine_handle.0"* %coerce.dive125, i32 0, i32 0, !dbg !2896
  %coerce.val.ip127 = inttoptr i32 %call124 to i8*, !dbg !2896
  store i8* %coerce.val.ip127, i8** %coerce.dive126, align 4, !dbg !2896
  %61 = bitcast %"struct.std::experimental::coroutines_v1::coroutine_handle"* %ref.tmp123.reload.addr to %"struct.std::experimental::coroutines_v1::coroutine_handle.0"*, !dbg !2896
  %62 = bitcast %"struct.std::experimental::coroutines_v1::coroutine_handle.0"* %agg.tmp122.reload.addr to i8*, !dbg !2896
  %63 = bitcast %"struct.std::experimental::coroutines_v1::coroutine_handle.0"* %61 to i8*, !dbg !2896
  call void @llvm.memcpy.p0i8.p0i8.i32(i8* align 4 %62, i8* align 4 %63, i32 4, i1 false), !dbg !2896
  %coerce.dive128 = getelementptr inbounds %"struct.std::experimental::coroutines_v1::coroutine_handle.0", %"struct.std::experimental::coroutines_v1::coroutine_handle.0"* %agg.tmp122.reload.addr, i32 0, i32 0, !dbg !2896
  %64 = bitcast i8** %coerce.dive128 to [1 x i32]*, !dbg !2896
  %65 = load [1 x i32], [1 x i32]* %64, align 4, !dbg !2896
  invoke arm_aapcs_vfpcc void @_ZN3scp4core8future_tIvNS0_15awaitable_stateIvEEE13await_suspendENSt12experimental13coroutines_v116coroutine_handleIvEE(%"struct.scp::core::future_t.5"* %ref.tmp117.reload.addr263, [1 x i32] %65)
          to label %CoroSuspend195 unwind label %lpad119, !dbg !2896

CoroSuspend195:                                   ; preds = %AfterCoroSave194
  br label %resume.6.landing, !dbg !2897

resume.6:                                         ; preds = %resume.entry
  br label %resume.6.landing, !dbg !2897

resume.6.landing:                                 ; preds = %resume.6, %CoroSuspend195
  %66 = phi i8 [ -1, %CoroSuspend195 ], [ 0, %resume.6 ]
  br label %AfterCoroSuspend196, !dbg !2897

AfterCoroSuspend196:                              ; preds = %resume.6.landing
  switch i8 %66, label %coro.ret [
    i8 0, label %await6.ready
    i8 1, label %await6.cleanup
  ], !dbg !2897

await6.cleanup:                                   ; preds = %AfterCoroSuspend196
  br label %cleanup131.from.await6.cleanup, !dbg !2897

cleanup131.from.await6.cleanup:                   ; preds = %await6.cleanup
  %.cleanup131207 = phi i32 [ 2, %await6.cleanup ]
  br label %cleanup131, !dbg !2897

lpad119:                                          ; preds = %await6.ready, %AfterCoroSave194
  %67 = landingpad { i8*, i32 }
          catch i8* null, !dbg !2879
  %ref.tmp117.reload.addr = getelementptr inbounds %_Z9adcTaskFnh.Frame, %_Z9adcTaskFnh.Frame* %FramePtr, i32 0, i32 33, !dbg !2879
  %ehselector.slot.reload.addr222 = getelementptr inbounds %_Z9adcTaskFnh.Frame, %_Z9adcTaskFnh.Frame* %FramePtr, i32 0, i32 5, !dbg !2879
  %exn.slot.reload.addr212 = getelementptr inbounds %_Z9adcTaskFnh.Frame, %_Z9adcTaskFnh.Frame* %FramePtr, i32 0, i32 4, !dbg !2879
  %68 = extractvalue { i8*, i32 } %67, 0, !dbg !2879
  store i8* %68, i8** %exn.slot.reload.addr212, align 4, !dbg !2879
  %69 = extractvalue { i8*, i32 } %67, 1, !dbg !2879
  store i32 %69, i32* %ehselector.slot.reload.addr222, align 4, !dbg !2879
  %call135 = call arm_aapcs_vfpcc %"struct.scp::core::future_t.5"* @_ZN3scp4core8future_tIvNS0_15awaitable_stateIvEEED2Ev(%"struct.scp::core::future_t.5"* %ref.tmp117.reload.addr) #3, !dbg !2897
  br label %catch136, !dbg !2897

catch136:                                         ; preds = %lpad119, %lpad91, %lpad70, %lpad49, %lpad32, %lpad18
  %exn.slot.reload.addr211 = getelementptr inbounds %_Z9adcTaskFnh.Frame, %_Z9adcTaskFnh.Frame* %FramePtr, i32 0, i32 4, !dbg !2864
  %exn137 = load i8*, i8** %exn.slot.reload.addr211, align 4, !dbg !2864
  %70 = call arm_aapcs_vfpcc i8* @__cxa_begin_catch(i8* %exn137) #3, !dbg !2864
  call arm_aapcs_vfpcc void @_ZN3scp4core9resumable12promise_type19unhandled_exceptionEv(%"struct.scp::core::resumable::promise_type"* %__promise), !dbg !2859
  br label %invoke.cont139

invoke.cont139:                                   ; preds = %catch136
  invoke arm_aapcs_vfpcc void @__cxa_end_catch()
          to label %invoke.cont140 unwind label %lpad2, !dbg !2859

invoke.cont140:                                   ; preds = %invoke.cont139
  br label %try.cont142, !dbg !2859

try.cont142:                                      ; preds = %invoke.cont140
  br label %coro.resumed.cont, !dbg !2859

coro.resumed.cont:                                ; preds = %try.cont142, %try.cont
  br label %coro.final, !dbg !2859

coro.final:                                       ; preds = %coro.resumed.cont
  call arm_aapcs_vfpcc void @_ZN3scp4core9resumable12promise_type13final_suspendEv(%"struct.scp::core::resumable::promise_type"* %__promise), !dbg !2859
  br label %invoke.cont144

invoke.cont144:                                   ; preds = %coro.final
  %ref.tmp143.reload.addr267 = getelementptr inbounds %_Z9adcTaskFnh.Frame, %_Z9adcTaskFnh.Frame* %FramePtr, i32 0, i32 36, !dbg !2859
  %call147 = call arm_aapcs_vfpcc zeroext i1 @_ZNSt12experimental13coroutines_v113suspend_never11await_readyEv(%"struct.std::experimental::coroutines_v1::suspend_never"* %ref.tmp143.reload.addr267), !dbg !2859
  br label %invoke.cont146

invoke.cont146:                                   ; preds = %invoke.cont144
  br i1 %call147, label %final.ready, label %CoroSave197, !dbg !2859

CoroSave197:                                      ; preds = %invoke.cont146
  %ResumeFn.addr = getelementptr inbounds %_Z9adcTaskFnh.Frame, %_Z9adcTaskFnh.Frame* %FramePtr, i32 0, i32 0, !dbg !2859
  store void (%_Z9adcTaskFnh.Frame*)* null, void (%_Z9adcTaskFnh.Frame*)** %ResumeFn.addr, !dbg !2859
  br label %AfterCoroSave198, !dbg !2859

AfterCoroSave198:                                 ; preds = %CoroSave197
  %ref.tmp149.reload.addr = getelementptr inbounds %_Z9adcTaskFnh.Frame, %_Z9adcTaskFnh.Frame* %FramePtr, i32 0, i32 38, !dbg !2859
  %agg.tmp148.reload.addr = getelementptr inbounds %_Z9adcTaskFnh.Frame, %_Z9adcTaskFnh.Frame* %FramePtr, i32 0, i32 37, !dbg !2859
  %ref.tmp143.reload.addr266 = getelementptr inbounds %_Z9adcTaskFnh.Frame, %_Z9adcTaskFnh.Frame* %FramePtr, i32 0, i32 36, !dbg !2859
  %call150 = call arm_aapcs_vfpcc i32 @_ZNSt12experimental13coroutines_v116coroutine_handleIN3scp4core9resumable12promise_typeEE12from_addressEPv(i8* %vFrame) #3, !dbg !2859
  %coerce.dive151 = getelementptr inbounds %"struct.std::experimental::coroutines_v1::coroutine_handle", %"struct.std::experimental::coroutines_v1::coroutine_handle"* %ref.tmp149.reload.addr, i32 0, i32 0, !dbg !2859
  %coerce.dive152 = getelementptr inbounds %"struct.std::experimental::coroutines_v1::coroutine_handle.0", %"struct.std::experimental::coroutines_v1::coroutine_handle.0"* %coerce.dive151, i32 0, i32 0, !dbg !2859
  %coerce.val.ip153 = inttoptr i32 %call150 to i8*, !dbg !2859
  store i8* %coerce.val.ip153, i8** %coerce.dive152, align 4, !dbg !2859
  %71 = bitcast %"struct.std::experimental::coroutines_v1::coroutine_handle"* %ref.tmp149.reload.addr to %"struct.std::experimental::coroutines_v1::coroutine_handle.0"*, !dbg !2859
  %72 = bitcast %"struct.std::experimental::coroutines_v1::coroutine_handle.0"* %agg.tmp148.reload.addr to i8*, !dbg !2859
  %73 = bitcast %"struct.std::experimental::coroutines_v1::coroutine_handle.0"* %71 to i8*, !dbg !2859
  call void @llvm.memcpy.p0i8.p0i8.i32(i8* align 4 %72, i8* align 4 %73, i32 4, i1 false), !dbg !2859
  %coerce.dive154 = getelementptr inbounds %"struct.std::experimental::coroutines_v1::coroutine_handle.0", %"struct.std::experimental::coroutines_v1::coroutine_handle.0"* %agg.tmp148.reload.addr, i32 0, i32 0, !dbg !2859
  %74 = bitcast i8** %coerce.dive154 to [1 x i32]*, !dbg !2859
  %75 = load [1 x i32], [1 x i32]* %74, align 4, !dbg !2859
  call arm_aapcs_vfpcc void @_ZNSt12experimental13coroutines_v113suspend_never13await_suspendENS0_16coroutine_handleIvEE(%"struct.std::experimental::coroutines_v1::suspend_never"* %ref.tmp143.reload.addr266, [1 x i32] %75), !dbg !2859
  br label %CoroSuspend199

CoroSuspend199:                                   ; preds = %AfterCoroSave198
  br label %resume.7.landing, !dbg !2859

resume.7.landing:                                 ; preds = %CoroSuspend199
  br label %AfterCoroSuspend200, !dbg !2859

AfterCoroSuspend200:                              ; preds = %resume.7.landing
  switch i8 -1, label %coro.ret [
    i8 0, label %final.ready
    i8 1, label %final.cleanup
  ], !dbg !2859

final.cleanup:                                    ; preds = %AfterCoroSuspend200
  br label %cleanup158.from.final.cleanup, !dbg !2859

cleanup158.from.final.cleanup:                    ; preds = %final.cleanup
  %.cleanup158208 = phi i32 [ 2, %final.cleanup ]
  br label %cleanup158, !dbg !2859

await6.ready:                                     ; preds = %AfterCoroSuspend196, %invoke.cont120
  %ref.tmp117.reload.addr262 = getelementptr inbounds %_Z9adcTaskFnh.Frame, %_Z9adcTaskFnh.Frame* %FramePtr, i32 0, i32 33, !dbg !2896
  invoke arm_aapcs_vfpcc void @_ZNK3scp4core8future_tIvNS0_15awaitable_stateIvEEE12await_resumeEv(%"struct.scp::core::future_t.5"* %ref.tmp117.reload.addr262)
          to label %invoke.cont130 unwind label %lpad119, !dbg !2896

invoke.cont130:                                   ; preds = %await6.ready
  br label %cleanup131.from.invoke.cont130, !dbg !2897

cleanup131.from.invoke.cont130:                   ; preds = %invoke.cont130
  %.cleanup131 = phi i32 [ 0, %invoke.cont130 ]
  br label %cleanup131, !dbg !2897

cleanup131:                                       ; preds = %cleanup131.from.invoke.cont130, %cleanup131.from.await6.cleanup
  %cleanup.dest.slot.4 = phi i32 [ %.cleanup131, %cleanup131.from.invoke.cont130 ], [ %.cleanup131207, %cleanup131.from.await6.cleanup ]
  %ref.tmp117.reload.addr261 = getelementptr inbounds %_Z9adcTaskFnh.Frame, %_Z9adcTaskFnh.Frame* %FramePtr, i32 0, i32 33, !dbg !2897
  %call132 = call arm_aapcs_vfpcc %"struct.scp::core::future_t.5"* @_ZN3scp4core8future_tIvNS0_15awaitable_stateIvEEED2Ev(%"struct.scp::core::future_t.5"* %ref.tmp117.reload.addr261) #3, !dbg !2897
  %cond = icmp eq i32 %cleanup.dest.slot.4, 0
  br i1 %cond, label %cleanup.cont134, label %cleanup158.from.cleanup131

cleanup158.from.cleanup131:                       ; preds = %cleanup131
  %cleanup.dest.slot.4.cleanup158 = phi i32 [ %cleanup.dest.slot.4, %cleanup131 ]
  br label %cleanup158

cleanup.cont134:                                  ; preds = %cleanup131
  br label %for.cond, !dbg !2898, !llvm.loop !2899

final.ready:                                      ; preds = %AfterCoroSuspend200, %invoke.cont146
  %ref.tmp143.reload.addr = getelementptr inbounds %_Z9adcTaskFnh.Frame, %_Z9adcTaskFnh.Frame* %FramePtr, i32 0, i32 36, !dbg !2859
  call arm_aapcs_vfpcc void @_ZNSt12experimental13coroutines_v113suspend_never12await_resumeEv(%"struct.std::experimental::coroutines_v1::suspend_never"* %ref.tmp143.reload.addr), !dbg !2859
  br label %invoke.cont156

invoke.cont156:                                   ; preds = %final.ready
  br label %cleanup158.from.invoke.cont156, !dbg !2859

cleanup158.from.invoke.cont156:                   ; preds = %invoke.cont156
  %.cleanup158 = phi i32 [ 0, %invoke.cont156 ]
  br label %cleanup158, !dbg !2859

cleanup158:                                       ; preds = %cleanup158.from.invoke.cont156, %cleanup158.from.cleanup131, %cleanup158.from.final.cleanup, %cleanup158.from.cleanup104, %cleanup158.from.cleanup83, %cleanup158.from.cleanup62, %cleanup158.from.cleanup, %cleanup158.from.await.cleanup, %cleanup158.from.init.cleanup
  %cleanup.dest.slot.5 = phi i32 [ %.cleanup158, %cleanup158.from.invoke.cont156 ], [ %.cleanup158208, %cleanup158.from.final.cleanup ], [ %cleanup.dest.slot.0.cleanup158, %cleanup158.from.cleanup ], [ %cleanup.dest.slot.1.cleanup158, %cleanup158.from.cleanup62 ], [ %cleanup.dest.slot.2.cleanup158, %cleanup158.from.cleanup83 ], [ %cleanup.dest.slot.3.cleanup158, %cleanup158.from.cleanup104 ], [ %cleanup.dest.slot.4.cleanup158, %cleanup158.from.cleanup131 ], [ %.cleanup158209, %cleanup158.from.await.cleanup ], [ %.cleanup158210, %cleanup158.from.init.cleanup ]
  %76 = icmp ne i8* %vFrame, null, !dbg !2859
  br i1 %76, label %coro.free, label %after.coro.free, !dbg !2859

coro.free:                                        ; preds = %cleanup158
  call arm_aapcs_vfpcc void @_ZN3scp4core9resumable12promise_typedlEPv(i8* %vFrame) #3, !dbg !2859
  br label %after.coro.free, !dbg !2859

after.coro.free:                                  ; preds = %coro.free, %cleanup158
  switch i32 %cleanup.dest.slot.5, label %unreachable [
    i32 0, label %cleanup.cont160
    i32 2, label %coro.ret
  ]

cleanup.cont160:                                  ; preds = %after.coro.free
  br label %coro.ret, !dbg !2859

coro.ret:                                         ; preds = %cleanup.cont160, %after.coro.free, %AfterCoroSuspend200, %AfterCoroSuspend196, %AfterCoroSuspend192, %AfterCoroSuspend188, %AfterCoroSuspend184, %AfterCoroSuspend180, %AfterCoroSuspend176, %AfterCoroSuspend
  br label %CoroEnd, !dbg !2859

CoroEnd:                                          ; preds = %coro.ret
  ret void

ehcleanup:                                        ; preds = %lpad2
  br label %CoroEnd201, !dbg !2859

CoroEnd201:                                       ; preds = %ehcleanup
  br label %AfterCoroEnd202, !dbg !2859

AfterCoroEnd202:                                  ; preds = %CoroEnd201
  br label %eh.resume, !dbg !2859

eh.resume:                                        ; preds = %AfterCoroEnd202
  %exn171 = load i8*, i8** %exn.slot, align 4, !dbg !2859
  %sel = load i32, i32* %ehselector.slot, align 4, !dbg !2859
  %lpad.val = insertvalue { i8*, i32 } undef, i8* %exn171, 0, !dbg !2859
  %lpad.val172 = insertvalue { i8*, i32 } %lpad.val, i32 %sel, 1, !dbg !2859
  resume { i8*, i32 } %lpad.val172, !dbg !2859

unreachable:                                      ; preds = %after.coro.free
  unreachable

resume.entry:                                     ; preds = %entry.resume
  %index.addr = getelementptr inbounds %_Z9adcTaskFnh.Frame, %_Z9adcTaskFnh.Frame* %FramePtr, i32 0, i32 3
  %index = load i3, i3* %index.addr
  switch i3 %index, label %unreachable268 [
    i3 0, label %resume.0
    i3 1, label %resume.1
    i3 2, label %resume.2
    i3 3, label %resume.3
    i3 -4, label %resume.4
    i3 -3, label %resume.5
    i3 -2, label %resume.6
  ]

unreachable268:                                   ; preds = %resume.entry
  unreachable, !dbg !2859
}

; Function Attrs: noinline optnone
define internal fastcc void @_Z9adcTaskFnh.destroy(%_Z9adcTaskFnh.Frame* %FramePtr) #0 personality i8* bitcast (i32 (...)* @__gxx_personality_v0 to i8*) !dbg !2902 {
entry.destroy:
  %vFrame = bitcast %_Z9adcTaskFnh.Frame* %FramePtr to i8*, !dbg !2903
  %__promise = getelementptr inbounds %_Z9adcTaskFnh.Frame, %_Z9adcTaskFnh.Frame* %FramePtr, i32 0, i32 2, !dbg !2903
  %exn.slot = getelementptr inbounds %_Z9adcTaskFnh.Frame, %_Z9adcTaskFnh.Frame* %FramePtr, i32 0, i32 4, !dbg !2903
  %ehselector.slot = getelementptr inbounds %_Z9adcTaskFnh.Frame, %_Z9adcTaskFnh.Frame* %FramePtr, i32 0, i32 5, !dbg !2903
  %ref.tmp = getelementptr inbounds %_Z9adcTaskFnh.Frame, %_Z9adcTaskFnh.Frame* %FramePtr, i32 0, i32 6, !dbg !2903
  %agg.tmp = getelementptr inbounds %_Z9adcTaskFnh.Frame, %_Z9adcTaskFnh.Frame* %FramePtr, i32 0, i32 7, !dbg !2903
  %ref.tmp6 = getelementptr inbounds %_Z9adcTaskFnh.Frame, %_Z9adcTaskFnh.Frame* %FramePtr, i32 0, i32 8, !dbg !2903
  %initresume.eh = getelementptr inbounds %_Z9adcTaskFnh.Frame, %_Z9adcTaskFnh.Frame* %FramePtr, i32 0, i32 9, !dbg !2903
  %ref.tmp17 = getelementptr inbounds %_Z9adcTaskFnh.Frame, %_Z9adcTaskFnh.Frame* %FramePtr, i32 0, i32 10, !dbg !2903
  %agg.tmp21 = getelementptr inbounds %_Z9adcTaskFnh.Frame, %_Z9adcTaskFnh.Frame* %FramePtr, i32 0, i32 11, !dbg !2903
  %ref.tmp22 = getelementptr inbounds %_Z9adcTaskFnh.Frame, %_Z9adcTaskFnh.Frame* %FramePtr, i32 0, i32 12, !dbg !2903
  %okx = getelementptr inbounds %_Z9adcTaskFnh.Frame, %_Z9adcTaskFnh.Frame* %FramePtr, i32 0, i32 13, !dbg !2903
  %ref.tmp30 = getelementptr inbounds %_Z9adcTaskFnh.Frame, %_Z9adcTaskFnh.Frame* %FramePtr, i32 0, i32 14, !dbg !2903
  %agg.tmp35 = getelementptr inbounds %_Z9adcTaskFnh.Frame, %_Z9adcTaskFnh.Frame* %FramePtr, i32 0, i32 15, !dbg !2903
  %ref.tmp36 = getelementptr inbounds %_Z9adcTaskFnh.Frame, %_Z9adcTaskFnh.Frame* %FramePtr, i32 0, i32 16, !dbg !2903
  %tmp.exprcleanup = getelementptr inbounds %_Z9adcTaskFnh.Frame, %_Z9adcTaskFnh.Frame* %FramePtr, i32 0, i32 17, !dbg !2903
  %oky = getelementptr inbounds %_Z9adcTaskFnh.Frame, %_Z9adcTaskFnh.Frame* %FramePtr, i32 0, i32 18, !dbg !2903
  %ref.tmp47 = getelementptr inbounds %_Z9adcTaskFnh.Frame, %_Z9adcTaskFnh.Frame* %FramePtr, i32 0, i32 19, !dbg !2903
  %agg.tmp52 = getelementptr inbounds %_Z9adcTaskFnh.Frame, %_Z9adcTaskFnh.Frame* %FramePtr, i32 0, i32 20, !dbg !2903
